EXPORTS
	?qt_metacall@QVideoPlayerEngine@@UAEHW4Call@QMetaObject@@HPAPAX@Z @ 1 NONAME ; int QVideoPlayerEngine::qt_metacall(enum QMetaObject::Call, int, void * *)
	?metaObject@QVideoPlayerEngine@@UBEPBUQMetaObject@@XZ @ 2 NONAME ; struct QMetaObject const * QVideoPlayerEngine::metaObject(void) const
	?instance@VideoActivityState@@SAAAV1@XZ @ 3 NONAME ; class VideoActivityState & VideoActivityState::instance(void)
	?tr@QVideoPlayerEngine@@SA?AVQString@@PBD0H@Z @ 4 NONAME ; class QString QVideoPlayerEngine::tr(char const *, char const *, int)
	?qt_metacast@VideoServices@@UAEPAXPBD@Z @ 5 NONAME ; void * VideoServices::qt_metacast(char const *)
	?getBrowseCategory@VideoServices@@QBEHXZ @ 6 NONAME ; int VideoServices::getBrowseCategory(void) const
	?setCurrentView@QVideoPlayerEngine@@AAEXXZ @ 7 NONAME ; void QVideoPlayerEngine::setCurrentView(void)
	?trUtf8@VideoServices@@SA?AVQString@@PBD0@Z @ 8 NONAME ; class QString VideoServices::trUtf8(char const *, char const *)
	?isPlayServiceInvoked@QVideoPlayerEngine@@AAE_NXZ @ 9 NONAME ; bool QVideoPlayerEngine::isPlayServiceInvoked(void)
	?itemSelected@VideoServices@@QAEXABVQString@@@Z @ 10 NONAME ; void VideoServices::itemSelected(class QString const &)
	?doDelayedLoad@QVideoPlayerEngine@@AAEXXZ @ 11 NONAME ; void QVideoPlayerEngine::doDelayedLoad(void)
	?handleCommand@QVideoPlayerEngine@@QAEXH@Z @ 12 NONAME ; void QVideoPlayerEngine::handleCommand(int)
	??1VideoServices@@EAE@XZ @ 13 NONAME ; VideoServices::~VideoServices(void)
	?titleReady@VideoServices@@IAEXABVQString@@@Z @ 14 NONAME ; void VideoServices::titleReady(class QString const &)
	?staticMetaObject@QVideoPlayerEngine@@2UQMetaObject@@B @ 15 NONAME ; struct QMetaObject const QVideoPlayerEngine::staticMetaObject
	?setActivityData@VideoActivityState@@QAEXABVQVariant@@ABVQString@@@Z @ 16 NONAME ; void VideoActivityState::setActivityData(class QVariant const &, class QString const &)
	??0VideoActivityState@@AAE@XZ @ 17 NONAME ; VideoActivityState::VideoActivityState(void)
	?activated@VideoServices@@IAEXH@Z @ 18 NONAME ; void VideoServices::activated(int)
	?metaObject@VideoServices@@UBEPBUQMetaObject@@XZ @ 19 NONAME ; struct QMetaObject const * VideoServices::metaObject(void) const
	?disconnectView@QVideoPlayerEngine@@AAEXXZ @ 20 NONAME ; void QVideoPlayerEngine::disconnectView(void)
	??_EVideoActivityState@@UAE@I@Z @ 21 NONAME ; VideoActivityState::~VideoActivityState(unsigned int)
	??_EVideoServices@@UAE@I@Z @ 22 NONAME ; VideoServices::~VideoServices(unsigned int)
	?setEngine@VideoServices@@AAEXPAVQVideoPlayerEngine@@@Z @ 23 NONAME ; void VideoServices::setEngine(class QVideoPlayerEngine *)
	?browsingEnded@VideoServices@@QAEXXZ @ 24 NONAME ; void VideoServices::browsingEnded(void)
	?playMedia@QVideoPlayerEngine@@QAEXVRFile@@@Z @ 25 NONAME ; void QVideoPlayerEngine::playMedia(class RFile)
	?getStaticMetaObject@VideoServices@@SAABUQMetaObject@@XZ @ 26 NONAME ; struct QMetaObject const & VideoServices::getStaticMetaObject(void)
	?decreaseReferenceCount@VideoServices@@QAEXXZ @ 27 NONAME ; void VideoServices::decreaseReferenceCount(void)
	?setEmbedded@QVideoPlayerEngine@@QAEXXZ @ 28 NONAME ; void QVideoPlayerEngine::setEmbedded(void)
	?setCurrentService@VideoServices@@AAEXW4TVideoService@1@@Z @ 29 NONAME ; void VideoServices::setCurrentService(enum VideoServices::TVideoService)
	?trUtf8@QVideoPlayerEngine@@SA?AVQString@@PBD0H@Z @ 30 NONAME ; class QString QVideoPlayerEngine::trUtf8(char const *, char const *, int)
	??0VideoServices@@AAE@PAVQVideoPlayerEngine@@@Z @ 31 NONAME ; VideoServices::VideoServices(class QVideoPlayerEngine *)
	?tr@QVideoPlayerEngine@@SA?AVQString@@PBD0@Z @ 32 NONAME ; class QString QVideoPlayerEngine::tr(char const *, char const *)
	?getStaticMetaObject@QVideoPlayerEngine@@SAABUQMetaObject@@XZ @ 33 NONAME ; struct QMetaObject const & QVideoPlayerEngine::getStaticMetaObject(void)
	?trUtf8@VideoServices@@SA?AVQString@@PBD0H@Z @ 34 NONAME ; class QString VideoServices::trUtf8(char const *, char const *, int)
	??1VideoActivityState@@EAE@XZ @ 35 NONAME ; VideoActivityState::~VideoActivityState(void)
	?createMissingViews@QVideoPlayerEngine@@AAEXXZ @ 36 NONAME ; void QVideoPlayerEngine::createMissingViews(void)
	?handleQuit@QVideoPlayerEngine@@AAEXXZ @ 37 NONAME ; void QVideoPlayerEngine::handleQuit(void)
	?createPlaybackView@QVideoPlayerEngine@@AAEXXZ @ 38 NONAME ; void QVideoPlayerEngine::createPlaybackView(void)
	?sortRole@VideoServices@@QBEHXZ @ 39 NONAME ; int VideoServices::sortRole(void) const
	?staticMetaObject@VideoServices@@2UQMetaObject@@B @ 40 NONAME ; struct QMetaObject const VideoServices::staticMetaObject
	??1QVideoPlayerEngine@@UAE@XZ @ 41 NONAME ; QVideoPlayerEngine::~QVideoPlayerEngine(void)
	?loadPluginAndCreateView@QVideoPlayerEngine@@AAEXW4MpxHbVideoViewType@MpxHbVideoCommon@@@Z @ 42 NONAME ; void QVideoPlayerEngine::loadPluginAndCreateView(enum MpxHbVideoCommon::MpxHbVideoViewType)
	?tr@VideoServices@@SA?AVQString@@PBD0H@Z @ 43 NONAME ; class QString VideoServices::tr(char const *, char const *, int)
	?qt_metacast@QVideoPlayerEngine@@UAEPAXPBD@Z @ 44 NONAME ; void * QVideoPlayerEngine::qt_metacast(char const *)
	?playMedia@QVideoPlayerEngine@@QAEXVQString@@@Z @ 45 NONAME ; void QVideoPlayerEngine::playMedia(class QString)
	?activateView@QVideoPlayerEngine@@AAEXW4MpxHbVideoViewType@MpxHbVideoCommon@@@Z @ 46 NONAME ; void QVideoPlayerEngine::activateView(enum MpxHbVideoCommon::MpxHbVideoViewType)
	??0QVideoPlayerEngine@@QAE@_N@Z @ 47 NONAME ; QVideoPlayerEngine::QVideoPlayerEngine(bool)
	?getActivityData@VideoActivityState@@QAE?BVQVariant@@ABVQString@@@Z @ 48 NONAME ; class QVariant const VideoActivityState::getActivityData(class QString const &)
	?contextTitle@VideoServices@@QBE?AVQString@@XZ @ 49 NONAME ; class QString VideoServices::contextTitle(void) const
	?shouldActivateCollectionView@QVideoPlayerEngine@@AAE_NXZ @ 50 NONAME ; bool QVideoPlayerEngine::shouldActivateCollectionView(void)
	?initialize@QVideoPlayerEngine@@QAEXXZ @ 51 NONAME ; void QVideoPlayerEngine::initialize(void)
	?trUtf8@QVideoPlayerEngine@@SA?AVQString@@PBD0@Z @ 52 NONAME ; class QString QVideoPlayerEngine::trUtf8(char const *, char const *)
	?qt_metacall@VideoServices@@UAEHW4Call@QMetaObject@@HPAPAX@Z @ 53 NONAME ; int VideoServices::qt_metacall(enum QMetaObject::Call, int, void * *)
	?currentService@VideoServices@@QAE?AW4TVideoService@1@XZ @ 54 NONAME ; enum VideoServices::TVideoService VideoServices::currentService(void)
	?mInstance@VideoServices@@0PAV1@A @ 55 NONAME ; class VideoServices * VideoServices::mInstance
	?tr@VideoServices@@SA?AVQString@@PBD0@Z @ 56 NONAME ; class QString VideoServices::tr(char const *, char const *)
	?engine@VideoServices@@AAEPAVQVideoPlayerEngine@@XZ @ 57 NONAME ; class QVideoPlayerEngine * VideoServices::engine(void)
	?connectView@QVideoPlayerEngine@@AAEXXZ @ 58 NONAME ; void QVideoPlayerEngine::connectView(void)
	?shouldExit@QVideoPlayerEngine@@AAE_NXZ @ 59 NONAME ; bool QVideoPlayerEngine::shouldExit(void)
	?instance@VideoServices@@SAPAV1@PAVQVideoPlayerEngine@@@Z @ 60 NONAME ; class VideoServices * VideoServices::instance(class QVideoPlayerEngine *)
	??_EQVideoPlayerEngine@@UAE@I@Z @ 61 NONAME ; QVideoPlayerEngine::~QVideoPlayerEngine(unsigned int)

