EXPORTS
	?getThumbnail@VideoThumbnailData@@QAEPBVQIcon@@VTMPXItemId@@@Z @ 1 NONAME ; class QIcon const * VideoThumbnailData::getThumbnail(class TMPXItemId)
	?sendAsyncStatus@VideoCollectionWrapper@@QAEXHAAVQVariant@@@Z @ 2 NONAME ; void VideoCollectionWrapper::sendAsyncStatus(int, class QVariant &)
	??1VideoSortFilterProxyModel@@UAE@XZ @ 3 NONAME ; VideoSortFilterProxyModel::~VideoSortFilterProxyModel(void)
	?startFetchingThumbnail@VideoThumbnailData@@QAEHHH@Z @ 4 NONAME ; int VideoThumbnailData::startFetchingThumbnail(int, int)
	?removeThumbnail@VideoThumbnailData@@QAE_NVTMPXItemId@@@Z @ 5 NONAME ; bool VideoThumbnailData::removeThumbnail(class TMPXItemId)
	?deleteItems@VideoSortFilterProxyModel@@QAEHABV?$QList@VQModelIndex@@@@@Z @ 6 NONAME ; int VideoSortFilterProxyModel::deleteItems(class QList<class QModelIndex> const &)
	?trUtf8@VideoThumbnailData@@SA?AVQString@@PBD0@Z @ 7 NONAME ; class QString VideoThumbnailData::trUtf8(char const *, char const *)
	?back@VideoSortFilterProxyModel@@QAEHXZ @ 8 NONAME ; int VideoSortFilterProxyModel::back(void)
	?modelReady@VideoSortFilterProxyModel@@IAEXXZ @ 9 NONAME ; void VideoSortFilterProxyModel::modelReady(void)
	?qt_metacall@VideoThumbnailData@@UAEHW4Call@QMetaObject@@HPAPAX@Z @ 10 NONAME ; int VideoThumbnailData::qt_metacall(enum QMetaObject::Call, int, void * *)
	?fullDetailsReady@VideoSortFilterProxyModel@@IAEXH@Z @ 11 NONAME ; void VideoSortFilterProxyModel::fullDetailsReady(int)
	??1VideoThumbnailData@@EAE@XZ @ 12 NONAME ; VideoThumbnailData::~VideoThumbnailData(void)
	??_EVideoThumbnailData@@UAE@I@Z @ 13 NONAME ; VideoThumbnailData::~VideoThumbnailData(unsigned int)
	?getMediaFilePathForId@VideoSortFilterProxyModel@@QAE?AVQString@@VTMPXItemId@@@Z @ 14 NONAME ; class QString VideoSortFilterProxyModel::getMediaFilePathForId(class TMPXItemId)
	?qt_metacast@VideoCollectionWrapper@@UAEPAXPBD@Z @ 15 NONAME ; void * VideoCollectionWrapper::qt_metacast(char const *)
	??0VideoSortFilterProxyModel@@QAE@PAVQObject@@@Z @ 16 NONAME ; VideoSortFilterProxyModel::VideoSortFilterProxyModel(class QObject *)
	?startBackgroundFetching@VideoThumbnailData@@QAEXH@Z @ 17 NONAME ; void VideoThumbnailData::startBackgroundFetching(int)
	?tr@VideoSortFilterProxyModel@@SA?AVQString@@PBD0H@Z @ 18 NONAME ; class QString VideoSortFilterProxyModel::tr(char const *, char const *, int)
	?instance@VideoThumbnailData@@SAAAV1@XZ @ 19 NONAME ; class VideoThumbnailData & VideoThumbnailData::instance(void)
	?fetchItemDetails@VideoSortFilterProxyModel@@QAEHABVQModelIndex@@@Z @ 20 NONAME ; int VideoSortFilterProxyModel::fetchItemDetails(class QModelIndex const &)
	??0VideoCollectionWrapper@@AAE@XZ @ 21 NONAME ; VideoCollectionWrapper::VideoCollectionWrapper(void)
	?metaObject@VideoSortFilterProxyModel@@UBEPBUQMetaObject@@XZ @ 22 NONAME ; struct QMetaObject const * VideoSortFilterProxyModel::metaObject(void) const
	?metaObject@VideoCollectionWrapper@@UBEPBUQMetaObject@@XZ @ 23 NONAME ; struct QMetaObject const * VideoCollectionWrapper::metaObject(void) const
	?open@VideoSortFilterProxyModel@@QAEHH@Z @ 24 NONAME ; int VideoSortFilterProxyModel::open(int)
	?lessThan@VideoSortFilterProxyModel@@MBE_NABVQModelIndex@@0@Z @ 25 NONAME ; bool VideoSortFilterProxyModel::lessThan(class QModelIndex const &, class QModelIndex const &) const
	?getStaticMetaObject@VideoCollectionWrapper@@SAABUQMetaObject@@XZ @ 26 NONAME ; struct QMetaObject const & VideoCollectionWrapper::getStaticMetaObject(void)
	?getStaticMetaObject@VideoSortFilterProxyModel@@SAABUQMetaObject@@XZ @ 27 NONAME ; struct QMetaObject const & VideoSortFilterProxyModel::getStaticMetaObject(void)
	?trUtf8@VideoSortFilterProxyModel@@SA?AVQString@@PBD0@Z @ 28 NONAME ; class QString VideoSortFilterProxyModel::trUtf8(char const *, char const *)
	?doSorting@VideoSortFilterProxyModel@@QAEXHW4SortOrder@Qt@@_N@Z @ 29 NONAME ; void VideoSortFilterProxyModel::doSorting(int, enum Qt::SortOrder, bool)
	??_EVideoCollectionWrapper@@UAE@I@Z @ 30 NONAME ; VideoCollectionWrapper::~VideoCollectionWrapper(unsigned int)
	?getStaticMetaObject@VideoThumbnailData@@SAABUQMetaObject@@XZ @ 31 NONAME ; struct QMetaObject const & VideoThumbnailData::getStaticMetaObject(void)
	?getMediaIdAtIndex@VideoSortFilterProxyModel@@QAE?AVTMPXItemId@@ABVQModelIndex@@@Z @ 32 NONAME ; class TMPXItemId VideoSortFilterProxyModel::getMediaIdAtIndex(class QModelIndex const &)
	?qt_metacall@VideoCollectionWrapper@@UAEHW4Call@QMetaObject@@HPAPAX@Z @ 33 NONAME ; int VideoCollectionWrapper::qt_metacall(enum QMetaObject::Call, int, void * *)
	?trUtf8@VideoThumbnailData@@SA?AVQString@@PBD0H@Z @ 34 NONAME ; class QString VideoThumbnailData::trUtf8(char const *, char const *, int)
	?enableBackgroundFetching@VideoThumbnailData@@QAEX_N@Z @ 35 NONAME ; void VideoThumbnailData::enableBackgroundFetching(bool)
	?openItem@VideoSortFilterProxyModel@@QAEHABVQModelIndex@@@Z @ 36 NONAME ; int VideoSortFilterProxyModel::openItem(class QModelIndex const &)
	?tr@VideoCollectionWrapper@@SA?AVQString@@PBD0H@Z @ 37 NONAME ; class QString VideoCollectionWrapper::tr(char const *, char const *, int)
	?staticMetaObject@VideoSortFilterProxyModel@@2UQMetaObject@@B @ 38 NONAME ; struct QMetaObject const VideoSortFilterProxyModel::staticMetaObject
	?tr@VideoSortFilterProxyModel@@SA?AVQString@@PBD0@Z @ 39 NONAME ; class QString VideoSortFilterProxyModel::tr(char const *, char const *)
	?asyncStatus@VideoCollectionWrapper@@IAEXHAAVQVariant@@@Z @ 40 NONAME ; void VideoCollectionWrapper::asyncStatus(int, class QVariant &)
	?initialize@VideoSortFilterProxyModel@@QAEHPAVVideoListDataModel@@@Z @ 41 NONAME ; int VideoSortFilterProxyModel::initialize(class VideoListDataModel *)
	?shortDetailsReady@VideoSortFilterProxyModel@@IAEXH@Z @ 42 NONAME ; void VideoSortFilterProxyModel::shortDetailsReady(int)
	?instance@VideoCollectionWrapper@@SAPAV1@XZ @ 43 NONAME ; class VideoCollectionWrapper * VideoCollectionWrapper::instance(void)
	?thumbnailsFetched@VideoThumbnailData@@IAEXV?$QList@VTMPXItemId@@@@@Z @ 44 NONAME ; void VideoThumbnailData::thumbnailsFetched(class QList<class TMPXItemId>)
	?trUtf8@VideoCollectionWrapper@@SA?AVQString@@PBD0@Z @ 45 NONAME ; class QString VideoCollectionWrapper::trUtf8(char const *, char const *)
	?processSorting@VideoSortFilterProxyModel@@AAEXXZ @ 46 NONAME ; void VideoSortFilterProxyModel::processSorting(void)
	?filterAcceptsRow@VideoSortFilterProxyModel@@MBE_NHABVQModelIndex@@@Z @ 47 NONAME ; bool VideoSortFilterProxyModel::filterAcceptsRow(int, class QModelIndex const &) const
	?metaObject@VideoThumbnailData@@UBEPBUQMetaObject@@XZ @ 48 NONAME ; struct QMetaObject const * VideoThumbnailData::metaObject(void) const
	?tr@VideoThumbnailData@@SA?AVQString@@PBD0H@Z @ 49 NONAME ; class QString VideoThumbnailData::tr(char const *, char const *, int)
	?addNewCollection@VideoSortFilterProxyModel@@QAEHVQString@@0V?$QList@VTMPXItemId@@@@@Z @ 50 NONAME ; int VideoSortFilterProxyModel::addNewCollection(class QString, class QString, class QList<class TMPXItemId>)
	?qt_metacast@VideoThumbnailData@@UAEPAXPBD@Z @ 51 NONAME ; void * VideoThumbnailData::qt_metacast(char const *)
	?trUtf8@VideoSortFilterProxyModel@@SA?AVQString@@PBD0H@Z @ 52 NONAME ; class QString VideoSortFilterProxyModel::trUtf8(char const *, char const *, int)
	?tr@VideoCollectionWrapper@@SA?AVQString@@PBD0@Z @ 53 NONAME ; class QString VideoCollectionWrapper::tr(char const *, char const *)
	?decreaseReferenceCount@VideoCollectionWrapper@@QAEXXZ @ 54 NONAME ; void VideoCollectionWrapper::decreaseReferenceCount(void)
	??_EVideoSortFilterProxyModel@@UAE@I@Z @ 55 NONAME ; VideoSortFilterProxyModel::~VideoSortFilterProxyModel(unsigned int)
	?mInstance@VideoCollectionWrapper@@0PAV1@A @ 56 NONAME ; class VideoCollectionWrapper * VideoCollectionWrapper::mInstance
	?getModel@VideoCollectionWrapper@@QAEPAVVideoSortFilterProxyModel@@XZ @ 57 NONAME ; class VideoSortFilterProxyModel * VideoCollectionWrapper::getModel(void)
	?qt_metacall@VideoSortFilterProxyModel@@UAEHW4Call@QMetaObject@@HPAPAX@Z @ 58 NONAME ; int VideoSortFilterProxyModel::qt_metacall(enum QMetaObject::Call, int, void * *)
	?freeThumbnailData@VideoThumbnailData@@QAEXXZ @ 59 NONAME ; void VideoThumbnailData::freeThumbnailData(void)
	?qt_metacast@VideoSortFilterProxyModel@@UAEPAXPBD@Z @ 60 NONAME ; void * VideoSortFilterProxyModel::qt_metacast(char const *)
	?staticMetaObject@VideoCollectionWrapper@@2UQMetaObject@@B @ 61 NONAME ; struct QMetaObject const VideoCollectionWrapper::staticMetaObject
	?tr@VideoThumbnailData@@SA?AVQString@@PBD0@Z @ 62 NONAME ; class QString VideoThumbnailData::tr(char const *, char const *)
	??1VideoCollectionWrapper@@EAE@XZ @ 63 NONAME ; VideoCollectionWrapper::~VideoCollectionWrapper(void)
	?trUtf8@VideoCollectionWrapper@@SA?AVQString@@PBD0H@Z @ 64 NONAME ; class QString VideoCollectionWrapper::trUtf8(char const *, char const *, int)
	??0VideoThumbnailData@@AAE@XZ @ 65 NONAME ; VideoThumbnailData::VideoThumbnailData(void)
	?staticMetaObject@VideoThumbnailData@@2UQMetaObject@@B @ 66 NONAME ; struct QMetaObject const VideoThumbnailData::staticMetaObject

