EXPORTS
	_Z9LibEntryLR13CTestModuleIf @ 1 NONAME
	_ZN11RConnection4OpenER11RSocketServj @ 2 NONAME
	_ZN11RConnection5CloseEv @ 3 NONAME
	_ZN11RConnection5StartER9TConnPref @ 4 NONAME
	_ZN11RConnectionC1Ev @ 5 NONAME
	_ZN11RConnectionC2Ev @ 6 NONAME
	_ZN11RConnectionD0Ev @ 7 NONAME
	_ZN11RConnectionD1Ev @ 8 NONAME
	_ZN11RConnectionD2Ev @ 9 NONAME
	_ZN11RSocketServ7ConnectEj @ 10 NONAME
	_ZN11RSocketServC1Ev @ 11 NONAME
	_ZN11RSocketServC2Ev @ 12 NONAME
	_ZN13RHttpDownload15GetIntAttributeEjRl @ 13 NONAME
	_ZN13RHttpDownload15SetIntAttributeEjl @ 14 NONAME
	_ZN13RHttpDownload16GetBoolAttributeEjRi @ 15 NONAME
	_ZN13RHttpDownload16SetBoolAttributeEji @ 16 NONAME
	_ZN13RHttpDownload18GetStringAttributeEjR5TDes8 @ 17 NONAME
	_ZN13RHttpDownload18GetStringAttributeEjR6TDes16 @ 18 NONAME
	_ZN13RHttpDownload18SetStringAttributeEjRK6TDesC8 @ 19 NONAME
	_ZN13RHttpDownload18SetStringAttributeEjRK7TDesC16 @ 20 NONAME
	_ZN13RHttpDownload22GetFileHandleAttributeER5RFile @ 21 NONAME
	_ZN13RHttpDownload22SetFileHandleAttributeER5RFile @ 22 NONAME
	_ZN13RHttpDownload4MoveEv @ 23 NONAME
	_ZN13RHttpDownload5PauseEv @ 24 NONAME
	_ZN13RHttpDownload5ResetEv @ 25 NONAME
	_ZN13RHttpDownload5StartEv @ 26 NONAME
	_ZN13RHttpDownload6DeleteEv @ 27 NONAME
	_ZN15TCommDbConnPref19SetDialogPreferenceE17TCommDbDialogPref @ 28 NONAME
	_ZN15TCommDbConnPrefC1Ev @ 29 NONAME
	_ZN15TCommDbConnPrefC2Ev @ 30 NONAME
	_ZN16CMediaRecognizer14FreeFilehandleEv @ 31 NONAME
	_ZN16CMediaRecognizer16IsValidUrlPrefixERK6TDesC8 @ 32 NONAME
	_ZN16CMediaRecognizer16IsValidUrlPrefixERK7TDesC16 @ 33 NONAME
	_ZN16CMediaRecognizer18IdentifyMediaTypeLERK7TDesC16R5RFilei @ 34 NONAME
	_ZN16CMediaRecognizer18IdentifyMediaTypeLERK7TDesC16R7RFile64i @ 35 NONAME
	_ZN16CMediaRecognizer18IdentifyMediaTypeLERK7TDesC16i @ 36 NONAME
	_ZN16CMediaRecognizer22IsValidStreamingPrefixERK7TDesC16 @ 37 NONAME
	_ZN16CMediaRecognizer4NewLEv @ 38 NONAME
	_ZN16CMediaRecognizer9MimeTypeLER5RFile @ 39 NONAME
	_ZN16CMediaRecognizer9MimeTypeLER7RFile64 @ 40 NONAME
	_ZN16CMediaRecognizer9MimeTypeLERK7TDesC16 @ 41 NONAME
	_ZN16CMediaRecognizerD0Ev @ 42 NONAME
	_ZN16CMediaRecognizerD1Ev @ 43 NONAME
	_ZN16CMediaRecognizerD2Ev @ 44 NONAME
	_ZN16RHttpDownloadMgr10DisconnectEv @ 45 NONAME
	_ZN16RHttpDownloadMgr12AddObserverLER24MHttpDownloadMgrObserver @ 46 NONAME
	_ZN16RHttpDownloadMgr12FindDownloadERK6TDesC8S2_ @ 47 NONAME
	_ZN16RHttpDownloadMgr14RemoveObserverER24MHttpDownloadMgrObserver @ 48 NONAME
	_ZN16RHttpDownloadMgr15CreateDownloadLERK6TDesC8 @ 49 NONAME
	_ZN16RHttpDownloadMgr15CreateDownloadLERK6TDesC8Ri @ 50 NONAME
	_ZN16RHttpDownloadMgr15GetIntAttributeEjRl @ 51 NONAME
	_ZN16RHttpDownloadMgr15SetIntAttributeEjl @ 52 NONAME
	_ZN16RHttpDownloadMgr16GetBoolAttributeEjRi @ 53 NONAME
	_ZN16RHttpDownloadMgr16SetBoolAttributeEji @ 54 NONAME
	_ZN16RHttpDownloadMgr18CreateCodDownloadLERK6TDesC8S2_S2_P9CEikonEnvRi @ 55 NONAME
	_ZN16RHttpDownloadMgr18GetStringAttributeEjR5TDes8 @ 56 NONAME
	_ZN16RHttpDownloadMgr18GetStringAttributeEjR6TDes16 @ 57 NONAME
	_ZN16RHttpDownloadMgr18SetNextUriObserverEP31MHttpDownloadMgrNextUriObserver @ 58 NONAME
	_ZN16RHttpDownloadMgr18SetStringAttributeEjRK6TDesC8 @ 59 NONAME
	_ZN16RHttpDownloadMgr18SetStringAttributeEjRK7TDesC16 @ 60 NONAME
	_ZN16RHttpDownloadMgr22SetDefaultIntAttributeEjl @ 61 NONAME
	_ZN16RHttpDownloadMgr23SetDefaultBoolAttributeEji @ 62 NONAME
	_ZN16RHttpDownloadMgr25CreateClientSideDownloadLEiRi @ 63 NONAME
	_ZN16RHttpDownloadMgr25SetDefaultStringAttributeEjRK6TDesC8 @ 64 NONAME
	_ZN16RHttpDownloadMgr25SetDefaultStringAttributeEjRK7TDesC16 @ 65 NONAME
	_ZN16RHttpDownloadMgr5CloseEv @ 66 NONAME
	_ZN16RHttpDownloadMgr8ConnectLE4TUidR24MHttpDownloadMgrObserveri @ 67 NONAME
	_ZN16RHttpDownloadMgr8PauseAllEv @ 68 NONAME
	_ZN16RHttpDownloadMgr8ResetAllEv @ 69 NONAME
	_ZN16RHttpDownloadMgr8StartAllEv @ 70 NONAME
	_ZN16RHttpDownloadMgr9DeleteAllEv @ 71 NONAME
	_ZN16RHttpDownloadMgrC1Ev @ 72 NONAME
	_ZN16RHttpDownloadMgrC2Ev @ 73 NONAME
	_ZN18RConnectionMonitor15GetIntAttributeEjjjRiR14TRequestStatus @ 74 NONAME
	_ZN18RConnectionMonitor16GetUintAttributeEjjjRjR14TRequestStatus @ 75 NONAME
	_ZN18RConnectionMonitor18GetConnectionCountERjR14TRequestStatus @ 76 NONAME
	_ZN18RConnectionMonitor5CloseEv @ 77 NONAME
	_ZN18RConnectionMonitor8ConnectLEv @ 78 NONAME
	_ZN22RHttpDownloadMgrApiExt17AttachToDownloadLEl @ 79 NONAME
	_ZN22RHttpDownloadMgrApiExtC1Ev @ 80 NONAME
	_ZN22RHttpDownloadMgrApiExtC2Ev @ 81 NONAME
	_ZN4User14WaitForRequestER14TRequestStatus @ 82 NONAME
	_ZN9TConnPrefC1Ev @ 83 NONAME
	_ZN9TConnPrefC2Ev @ 84 NONAME
	_ZNK15TCommDbConnPref7CompareERKS_ @ 85 NONAME
	_ZNK16RHttpDownloadMgr16CurrentDownloadsEv @ 86 NONAME
	_ZNK16RHttpDownloadMgr7VersionEv @ 87 NONAME
	_ZNK18RConnectionMonitor17GetConnectionInfoEjRjS0_ @ 88 NONAME
	_ZTI11RConnection @ 89 NONAME
	_ZTI13RHttpDownload @ 90 NONAME
	_ZTI14CSimpleTimeout @ 91 NONAME
	_ZTI15CDlMgrTestClass @ 92 NONAME
	_ZTI15CMPXPausedState @ 93 NONAME
	_ZTI15CMPXVideoRegion @ 94 NONAME
	_ZTI15TCommDbConnPref @ 95 NONAME
	_ZTI16CMPXPlayingState @ 96 NONAME
	_ZTI16CMPXSeekingState @ 97 NONAME
	_ZTI16CMPXStoppedState @ 98 NONAME
	_ZTI16CMPXVideoDlMgrIf @ 99 NONAME
	_ZTI16RHttpDownloadMgr @ 100 NONAME
	_ZTI17CThumbnailManager @ 101 NONAME
	_ZTI18CMPXBufferingState @ 102 NONAME
	_ZTI18CMpxVideoDrmHelper @ 103 NONAME
	_ZTI20CMPXInitialisedState @ 104 NONAME
	_ZTI21CMPXInitialisingState @ 105 NONAME
	_ZTI21CMPXLocalPlaybackMode @ 106 NONAME
	_ZTI22CThumbnailObjectSource @ 107 NONAME
	_ZTI23CMPXNotInitialisedState @ 108 NONAME
	_ZTI25CMPXStreamingPlaybackMode @ 109 NONAME
	_ZTI29CMPXLiveStreamingPlaybackMode @ 110 NONAME
	_ZTI29CMPXProgressiveDLPlaybackMode @ 111 NONAME
	_ZTV11RConnection @ 112 NONAME
	_ZTV13RHttpDownload @ 113 NONAME
	_ZTV14CSimpleTimeout @ 114 NONAME
	_ZTV15CDlMgrTestClass @ 115 NONAME
	_ZTV15CMPXPausedState @ 116 NONAME
	_ZTV15CMPXVideoRegion @ 117 NONAME
	_ZTV15TCommDbConnPref @ 118 NONAME
	_ZTV16CMPXPlayingState @ 119 NONAME
	_ZTV16CMPXSeekingState @ 120 NONAME
	_ZTV16CMPXStoppedState @ 121 NONAME
	_ZTV16CMPXVideoDlMgrIf @ 122 NONAME
	_ZTV16RHttpDownloadMgr @ 123 NONAME
	_ZTV17CThumbnailManager @ 124 NONAME
	_ZTV18CMPXBufferingState @ 125 NONAME
	_ZTV18CMpxVideoDrmHelper @ 126 NONAME
	_ZTV20CMPXInitialisedState @ 127 NONAME
	_ZTV21CMPXInitialisingState @ 128 NONAME
	_ZTV21CMPXLocalPlaybackMode @ 129 NONAME
	_ZTV22CThumbnailObjectSource @ 130 NONAME
	_ZTV23CMPXNotInitialisedState @ 131 NONAME
	_ZTV25CMPXStreamingPlaybackMode @ 132 NONAME
	_ZTV29CMPXLiveStreamingPlaybackMode @ 133 NONAME
	_ZTV29CMPXProgressiveDLPlaybackMode @ 134 NONAME

