EXPORTS
	?CancelDownloadL@CVCXTestMyVideosCollectionClient@@QAEXI@Z @ 1 NONAME ; void CVCXTestMyVideosCollectionClient::CancelDownloadL(unsigned int)
	?CompareDownloads@CVCXTestMyVideosCollectionClient@@CAHABVTVCXTestDownload@@0@Z @ 2 NONAME ; int CVCXTestMyVideosCollectionClient::CompareDownloads(class TVCXTestDownload const &, class TVCXTestDownload const &)
	?CreateMpxCommandLC@CVCXTestMyVideosCollectionClient@@AAEPAVCMPXMedia@@HHH@Z @ 3 NONAME ; class CMPXMedia * CVCXTestMyVideosCollectionClient::CreateMpxCommandLC(int, int, int)
	?DownloadCount@CVCXTestMyVideosCollectionClient@@QAEHXZ @ 4 NONAME ; int CVCXTestMyVideosCollectionClient::DownloadCount(void)
	?DownloadL@CVCXTestMyVideosCollectionClient@@QAEXABVTDesC16@@I00@Z @ 5 NONAME ; void CVCXTestMyVideosCollectionClient::DownloadL(class TDesC16 const &, unsigned int, class TDesC16 const &, class TDesC16 const &)
	?EnsureMediaFilesAreNotInUseL@CVCXTestMyVideosCollectionClient@@QAEXXZ @ 6 NONAME ; void CVCXTestMyVideosCollectionClient::EnsureMediaFilesAreNotInUseL(void)
	?GetCountOfNewVideos@CVCXTestMyVideosCollectionClient@@QAEHH@Z @ 7 NONAME ; int CVCXTestMyVideosCollectionClient::GetCountOfNewVideos(int)
	?GetCountOfOngoingDownloads@CVCXTestMyVideosCollectionClient@@QAEHXZ @ 8 NONAME ; int CVCXTestMyVideosCollectionClient::GetCountOfOngoingDownloads(void)
	?GetVideoL@CVCXTestMyVideosCollectionClient@@QAEPAVCMPXMedia@@I@Z @ 9 NONAME ; class CMPXMedia * CVCXTestMyVideosCollectionClient::GetVideoL(unsigned int)
	?LevelsL@CVCXTestMyVideosCollectionClient@@QAEHXZ @ 10 NONAME ; int CVCXTestMyVideosCollectionClient::LevelsL(void)
	?NewL@CVCXTestMyVideosCollectionClient@@SAPAV1@PAVMVCXTestMyVideosObserver@@@Z @ 11 NONAME ; class CVCXTestMyVideosCollectionClient * CVCXTestMyVideosCollectionClient::NewL(class MVCXTestMyVideosObserver *)
	?OpenCollectionL@CVCXTestMyVideosCollectionClient@@AAEXXZ @ 12 NONAME ; void CVCXTestMyVideosCollectionClient::OpenCollectionL(void)
	?OpenCollectionLevelL@CVCXTestMyVideosCollectionClient@@AAEXK@Z @ 13 NONAME ; void CVCXTestMyVideosCollectionClient::OpenCollectionLevelL(unsigned long)
	?PrintMediasL@CVCXTestMyVideosCollectionClient@@AAEXPAVCMPXMediaArray@@@Z @ 14 NONAME ; void CVCXTestMyVideosCollectionClient::PrintMediasL(class CMPXMediaArray *)
	?RefreshCollectionL@CVCXTestMyVideosCollectionClient@@QAEXXZ @ 15 NONAME ; void CVCXTestMyVideosCollectionClient::RefreshCollectionL(void)
	?RemoveVideoL@CVCXTestMyVideosCollectionClient@@QAEXI@Z @ 16 NONAME ; void CVCXTestMyVideosCollectionClient::RemoveVideoL(unsigned int)
	?UpdateDownloadL@CVCXTestMyVideosCollectionClient@@AAEHPAVCMPXMedia@@@Z @ 17 NONAME ; int CVCXTestMyVideosCollectionClient::UpdateDownloadL(class CMPXMedia *)
	?UpdateDownloadListL@CVCXTestMyVideosCollectionClient@@AAEXXZ @ 18 NONAME ; void CVCXTestMyVideosCollectionClient::UpdateDownloadListL(void)
	?UpdateMediaArrayL@CVCXTestMyVideosCollectionClient@@AAEXXZ @ 19 NONAME ; void CVCXTestMyVideosCollectionClient::UpdateMediaArrayL(void)
	?UpdateVideoListL@CVCXTestMyVideosCollectionClient@@AAEXH@Z @ 20 NONAME ; void CVCXTestMyVideosCollectionClient::UpdateVideoListL(int)
	?VideoCount@CVCXTestMyVideosCollectionClient@@QAEHXZ @ 21 NONAME ; int CVCXTestMyVideosCollectionClient::VideoCount(void)

