EXPORTS
	?LibEntryL@@YAPAVCScriptBase@@AAVCTestModuleIf@@@Z @ 1 NONAME ; class CScriptBase * LibEntryL(class CTestModuleIf &)
	?Close@RConnection@@QAEXXZ @ 2 NONAME ; void RConnection::Close(void)
	?Connect@RSocketServ@@QAEHI@Z @ 3 NONAME ; int RSocketServ::Connect(unsigned int)
	?SetBoolAttribute@RHttpDownloadMgr@@QAEHIH@Z @ 4 NONAME ; int RHttpDownloadMgr::SetBoolAttribute(unsigned int, int)
	?GetConnectionInfo@RConnectionMonitor@@QBEHIAAI0@Z @ 5 NONAME ; int RConnectionMonitor::GetConnectionInfo(unsigned int, unsigned int &, unsigned int &) const
	?GetBoolAttribute@RHttpDownload@@QAEHIAAH@Z @ 6 NONAME ; int RHttpDownload::GetBoolAttribute(unsigned int, int &)
	?Disconnect@RHttpDownloadMgr@@QAEHXZ @ 7 NONAME ; int RHttpDownloadMgr::Disconnect(void)
	??0RConnection@@QAE@XZ @ 8 NONAME ; RConnection::RConnection(void)
	?StartAll@RHttpDownloadMgr@@QAEHXZ @ 9 NONAME ; int RHttpDownloadMgr::StartAll(void)
	??0RHttpDownloadMgr@@QAE@XZ @ 10 NONAME ; RHttpDownloadMgr::RHttpDownloadMgr(void)
	?ResetAll@RHttpDownloadMgr@@QAEHXZ @ 11 NONAME ; int RHttpDownloadMgr::ResetAll(void)
	?GetStringAttribute@RHttpDownload@@QAEHIAAVTDes8@@@Z @ 12 NONAME ; int RHttpDownload::GetStringAttribute(unsigned int, class TDes8 &)
	?SetBoolAttribute@RHttpDownload@@QAEHIH@Z @ 13 NONAME ; int RHttpDownload::SetBoolAttribute(unsigned int, int)
	?AttachToDownloadL@RHttpDownloadMgrApiExt@@QAEAAVRHttpDownload@@J@Z @ 14 NONAME ; class RHttpDownload & RHttpDownloadMgrApiExt::AttachToDownloadL(long)
	?GetStringAttribute@RHttpDownloadMgr@@QAEHIAAVTDes16@@@Z @ 15 NONAME ; int RHttpDownloadMgr::GetStringAttribute(unsigned int, class TDes16 &)
	?CreateCodDownloadL@RHttpDownloadMgr@@QAEAAVRHttpDownload@@ABVTDesC8@@00PAVCEikonEnv@@AAH@Z @ 16 NONAME ; class RHttpDownload & RHttpDownloadMgr::CreateCodDownloadL(class TDesC8 const &, class TDesC8 const &, class TDesC8 const &, class CEikonEnv *, int &)
	?IsValidUrlPrefix@CMediaRecognizer@@QAEHABVTDesC16@@@Z @ 17 NONAME ; int CMediaRecognizer::IsValidUrlPrefix(class TDesC16 const &)
	?Delete@RHttpDownload@@QAEHXZ @ 18 NONAME ; int RHttpDownload::Delete(void)
	?Open@RConnection@@QAEHAAVRSocketServ@@I@Z @ 19 NONAME ; int RConnection::Open(class RSocketServ &, unsigned int)
	??0TCommDbConnPref@@QAE@XZ @ 20 NONAME ; TCommDbConnPref::TCommDbConnPref(void)
	?WaitForRequest@User@@SAXAAVTRequestStatus@@@Z @ 21 NONAME ; void User::WaitForRequest(class TRequestStatus &)
	?SetIntAttribute@RHttpDownloadMgr@@QAEHIJ@Z @ 22 NONAME ; int RHttpDownloadMgr::SetIntAttribute(unsigned int, long)
	?MimeTypeL@CMediaRecognizer@@QAE?AV?$TBuf@$0BAA@@@AAVRFile@@@Z @ 23 NONAME ; class TBuf<256> CMediaRecognizer::MimeTypeL(class RFile &)
	?SetDialogPreference@TCommDbConnPref@@QAEXW4TCommDbDialogPref@@@Z @ 24 NONAME ; void TCommDbConnPref::SetDialogPreference(enum TCommDbDialogPref)
	?SetStringAttribute@RHttpDownload@@QAEHIABVTDesC8@@@Z @ 25 NONAME ; int RHttpDownload::SetStringAttribute(unsigned int, class TDesC8 const &)
	?Close@RHttpDownloadMgr@@QAEXXZ @ 26 NONAME ; void RHttpDownloadMgr::Close(void)
	?Move@RHttpDownload@@QAEHXZ @ 27 NONAME ; int RHttpDownload::Move(void)
	?IdentifyMediaTypeL@CMediaRecognizer@@QAE?AW4TMediaType@1@ABVTDesC16@@AAVRFile64@@H@Z @ 28 NONAME ; enum CMediaRecognizer::TMediaType CMediaRecognizer::IdentifyMediaTypeL(class TDesC16 const &, class RFile64 &, int)
	?IsValidUrlPrefix@CMediaRecognizer@@QAEHABVTDesC8@@@Z @ 29 NONAME ; int CMediaRecognizer::IsValidUrlPrefix(class TDesC8 const &)
	?SetStringAttribute@RHttpDownloadMgr@@QAEHIABVTDesC8@@@Z @ 30 NONAME ; int RHttpDownloadMgr::SetStringAttribute(unsigned int, class TDesC8 const &)
	?CreateDownloadL@RHttpDownloadMgr@@QAEAAVRHttpDownload@@ABVTDesC8@@AAH@Z @ 31 NONAME ; class RHttpDownload & RHttpDownloadMgr::CreateDownloadL(class TDesC8 const &, int &)
	?SetDefaultIntAttribute@RHttpDownloadMgr@@QAEHIJ@Z @ 32 NONAME ; int RHttpDownloadMgr::SetDefaultIntAttribute(unsigned int, long)
	?GetStringAttribute@RHttpDownloadMgr@@QAEHIAAVTDes8@@@Z @ 33 NONAME ; int RHttpDownloadMgr::GetStringAttribute(unsigned int, class TDes8 &)
	?MimeTypeL@CMediaRecognizer@@QAE?AV?$TBuf@$0BAA@@@ABVTDesC16@@@Z @ 34 NONAME ; class TBuf<256> CMediaRecognizer::MimeTypeL(class TDesC16 const &)
	?GetStringAttribute@RHttpDownload@@QAEHIAAVTDes16@@@Z @ 35 NONAME ; int RHttpDownload::GetStringAttribute(unsigned int, class TDes16 &)
	?SetDefaultBoolAttribute@RHttpDownloadMgr@@QAEHIH@Z @ 36 NONAME ; int RHttpDownloadMgr::SetDefaultBoolAttribute(unsigned int, int)
	?GetUintAttribute@RConnectionMonitor@@QAEXIIIAAIAAVTRequestStatus@@@Z @ 37 NONAME ; void RConnectionMonitor::GetUintAttribute(unsigned int, unsigned int, unsigned int, unsigned int &, class TRequestStatus &)
	?Compare@TCommDbConnPref@@UBEHABV1@@Z @ 38 NONAME ; int TCommDbConnPref::Compare(class TCommDbConnPref const &) const
	??0RHttpDownloadMgrApiExt@@QAE@XZ @ 39 NONAME ; RHttpDownloadMgrApiExt::RHttpDownloadMgrApiExt(void)
	?SetIntAttribute@RHttpDownload@@QAEHIJ@Z @ 40 NONAME ; int RHttpDownload::SetIntAttribute(unsigned int, long)
	?CreateClientSideDownloadL@RHttpDownloadMgr@@QAEAAVRHttpDownload@@HAAH@Z @ 41 NONAME ; class RHttpDownload & RHttpDownloadMgr::CreateClientSideDownloadL(int, int &)
	?Start@RHttpDownload@@QAEHXZ @ 42 NONAME ; int RHttpDownload::Start(void)
	?PauseAll@RHttpDownloadMgr@@QAEHXZ @ 43 NONAME ; int RHttpDownloadMgr::PauseAll(void)
	?IsValidStreamingPrefix@CMediaRecognizer@@QAEHABVTDesC16@@@Z @ 44 NONAME ; int CMediaRecognizer::IsValidStreamingPrefix(class TDesC16 const &)
	??0TConnPref@@QAE@XZ @ 45 NONAME ; TConnPref::TConnPref(void)
	?CurrentDownloads@RHttpDownloadMgr@@QBEABV?$CArrayPtrFlat@VRHttpDownload@@@@XZ @ 46 NONAME ; class CArrayPtrFlat<class RHttpDownload> const & RHttpDownloadMgr::CurrentDownloads(void) const
	?GetFileHandleAttribute@RHttpDownload@@QAEHAAVRFile@@@Z @ 47 NONAME ; int RHttpDownload::GetFileHandleAttribute(class RFile &)
	?FreeFilehandle@CMediaRecognizer@@QAEXXZ @ 48 NONAME ; void CMediaRecognizer::FreeFilehandle(void)
	?Version@RHttpDownloadMgr@@QBE?AVTVersion@@XZ @ 49 NONAME ; class TVersion RHttpDownloadMgr::Version(void) const
	?SetFileHandleAttribute@RHttpDownload@@QAEHAAVRFile@@@Z @ 50 NONAME ; int RHttpDownload::SetFileHandleAttribute(class RFile &)
	?Pause@RHttpDownload@@QAEHXZ @ 51 NONAME ; int RHttpDownload::Pause(void)
	?GetIntAttribute@RHttpDownload@@QAEHIAAJ@Z @ 52 NONAME ; int RHttpDownload::GetIntAttribute(unsigned int, long &)
	?RemoveObserver@RHttpDownloadMgr@@QAEXAAVMHttpDownloadMgrObserver@@@Z @ 53 NONAME ; void RHttpDownloadMgr::RemoveObserver(class MHttpDownloadMgrObserver &)
	?ConnectL@RHttpDownloadMgr@@QAEXVTUid@@AAVMHttpDownloadMgrObserver@@H@Z @ 54 NONAME ; void RHttpDownloadMgr::ConnectL(class TUid, class MHttpDownloadMgrObserver &, int)
	?NewL@CMediaRecognizer@@SAPAV1@XZ @ 55 NONAME ; class CMediaRecognizer * CMediaRecognizer::NewL(void)
	?SetStringAttribute@RHttpDownload@@QAEHIABVTDesC16@@@Z @ 56 NONAME ; int RHttpDownload::SetStringAttribute(unsigned int, class TDesC16 const &)
	??0RSocketServ@@QAE@XZ @ 57 NONAME ; RSocketServ::RSocketServ(void)
	?IdentifyMediaTypeL@CMediaRecognizer@@QAE?AW4TMediaType@1@ABVTDesC16@@H@Z @ 58 NONAME ; enum CMediaRecognizer::TMediaType CMediaRecognizer::IdentifyMediaTypeL(class TDesC16 const &, int)
	?GetBoolAttribute@RHttpDownloadMgr@@QAEHIAAH@Z @ 59 NONAME ; int RHttpDownloadMgr::GetBoolAttribute(unsigned int, int &)
	?SetDefaultStringAttribute@RHttpDownloadMgr@@QAEHIABVTDesC16@@@Z @ 60 NONAME ; int RHttpDownloadMgr::SetDefaultStringAttribute(unsigned int, class TDesC16 const &)
	??1CMediaRecognizer@@UAE@XZ @ 61 NONAME ; CMediaRecognizer::~CMediaRecognizer(void)
	?SetDefaultStringAttribute@RHttpDownloadMgr@@QAEHIABVTDesC8@@@Z @ 62 NONAME ; int RHttpDownloadMgr::SetDefaultStringAttribute(unsigned int, class TDesC8 const &)
	?SetNextUriObserver@RHttpDownloadMgr@@QAEXPAVMHttpDownloadMgrNextUriObserver@@@Z @ 63 NONAME ; void RHttpDownloadMgr::SetNextUriObserver(class MHttpDownloadMgrNextUriObserver *)
	?IdentifyMediaTypeL@CMediaRecognizer@@QAE?AW4TMediaType@1@ABVTDesC16@@AAVRFile@@H@Z @ 64 NONAME ; enum CMediaRecognizer::TMediaType CMediaRecognizer::IdentifyMediaTypeL(class TDesC16 const &, class RFile &, int)
	?Start@RConnection@@QAEHAAVTConnPref@@@Z @ 65 NONAME ; int RConnection::Start(class TConnPref &)
	?GetIntAttribute@RHttpDownloadMgr@@QAEHIAAJ@Z @ 66 NONAME ; int RHttpDownloadMgr::GetIntAttribute(unsigned int, long &)
	?Close@RConnectionMonitor@@QAEXXZ @ 67 NONAME ; void RConnectionMonitor::Close(void)
	?SetStringAttribute@RHttpDownloadMgr@@QAEHIABVTDesC16@@@Z @ 68 NONAME ; int RHttpDownloadMgr::SetStringAttribute(unsigned int, class TDesC16 const &)
	?Reset@RHttpDownload@@QAEHXZ @ 69 NONAME ; int RHttpDownload::Reset(void)
	?GetIntAttribute@RConnectionMonitor@@QAEXIIIAAHAAVTRequestStatus@@@Z @ 70 NONAME ; void RConnectionMonitor::GetIntAttribute(unsigned int, unsigned int, unsigned int, int &, class TRequestStatus &)
	?GetConnectionCount@RConnectionMonitor@@QAEXAAIAAVTRequestStatus@@@Z @ 71 NONAME ; void RConnectionMonitor::GetConnectionCount(unsigned int &, class TRequestStatus &)
	?DeleteAll@RHttpDownloadMgr@@QAEHXZ @ 72 NONAME ; int RHttpDownloadMgr::DeleteAll(void)
	?ConnectL@RConnectionMonitor@@QAEHXZ @ 73 NONAME ; int RConnectionMonitor::ConnectL(void)
	?FindDownload@RHttpDownloadMgr@@QAEPAVRHttpDownload@@ABVTDesC8@@0@Z @ 74 NONAME ; class RHttpDownload * RHttpDownloadMgr::FindDownload(class TDesC8 const &, class TDesC8 const &)
	?AddObserverL@RHttpDownloadMgr@@QAEXAAVMHttpDownloadMgrObserver@@@Z @ 75 NONAME ; void RHttpDownloadMgr::AddObserverL(class MHttpDownloadMgrObserver &)
	?MimeTypeL@CMediaRecognizer@@QAE?AV?$TBuf@$0BAA@@@AAVRFile64@@@Z @ 76 NONAME ; class TBuf<256> CMediaRecognizer::MimeTypeL(class RFile64 &)
	??1RConnection@@UAE@XZ @ 77 NONAME ; RConnection::~RConnection(void)
	?CreateDownloadL@RHttpDownloadMgr@@QAEAAVRHttpDownload@@ABVTDesC8@@@Z @ 78 NONAME ; class RHttpDownload & RHttpDownloadMgr::CreateDownloadL(class TDesC8 const &)

