EXPORTS
	??1CIptvServiceInfo@@UAE@XZ @ 1 NONAME ; CIptvServiceInfo::~CIptvServiceInfo(void)
	??1CIptvTestDlFileInfo@@UAE@XZ @ 2 NONAME ; CIptvTestDlFileInfo::~CIptvTestDlFileInfo(void)
	??1CIptvTestDlInfo@@UAE@XZ @ 3 NONAME ; CIptvTestDlInfo::~CIptvTestDlInfo(void)
	??1CIptvTestEcgUpdateInfo@@UAE@XZ @ 4 NONAME ; CIptvTestEcgUpdateInfo::~CIptvTestEcgUpdateInfo(void)
	??1CIptvTestLogger@@UAE@XZ @ 5 NONAME ; CIptvTestLogger::~CIptvTestLogger(void)
	??1CIptvTestUtilities@@UAE@XZ @ 6 NONAME ; CIptvTestUtilities::~CIptvTestUtilities(void)
	??1CIptvTestVCApiUtil@@UAE@XZ @ 7 NONAME ; CIptvTestVCApiUtil::~CIptvTestVCApiUtil(void)
	??1CIptvTestVodContentAllDetails@@UAE@XZ @ 8 NONAME ; CIptvTestVodContentAllDetails::~CIptvTestVodContentAllDetails(void)
	?AdvanceSystemTime1Second@CIptvTestUtilities@@SAHXZ @ 9 NONAME ; int CIptvTestUtilities::AdvanceSystemTime1Second(void)
	?CreateBadIapL@CIptvTestUtilities@@QAEKAAVTDesC16@@@Z @ 10 NONAME ; unsigned long CIptvTestUtilities::CreateBadIapL(class TDesC16 &)
	?CreateIptvServiceInstanceL@CIptvTestUtilities@@QAEPAVCIptvService@@AAVCIptvServiceInfo@@@Z @ 11 NONAME ; class CIptvService * CIptvTestUtilities::CreateIptvServiceInstanceL(class CIptvServiceInfo &)
	?CreateVerifyData@CIptvTestUtilities@@QAEHAAVTDesC16@@H@Z @ 12 NONAME ; int CIptvTestUtilities::CreateVerifyData(class TDesC16 &, int)
	?CreateVideoFileL@CIptvTestUtilities@@QAEXW4TIptvTestVideoType@CIptvTestVideoCreator@@AAVTDesC16@@H@Z @ 13 NONAME ; void CIptvTestUtilities::CreateVideoFileL(enum CIptvTestVideoCreator::TIptvTestVideoType, class TDesC16 &, int)
	?CreateVideoFilesL@CIptvTestUtilities@@QAEXW4TIptvTestVideoType@CIptvTestVideoCreator@@AAVTDesC16@@HAAV?$RPointerArray@VHBufC16@@@@@Z @ 14 NONAME ; void CIptvTestUtilities::CreateVideoFilesL(enum CIptvTestVideoCreator::TIptvTestVideoType, class TDesC16 &, int, class RPointerArray<class HBufC16> &)
	?DeleteDummyFilesL@CIptvTestUtilities@@QAEXH@Z @ 15 NONAME ; void CIptvTestUtilities::DeleteDummyFilesL(int)
	?DeleteVideoL@CIptvTestUtilities@@QAEHAAVCIptvMyVideosGlobalFileId@@@Z @ 16 NONAME ; int CIptvTestUtilities::DeleteVideoL(class CIptvMyVideosGlobalFileId &)
	?DlGoing@CIptvTestDlInfo@@QAEXKKAAVCIptvMyVideosGlobalFileId@@KW4TIptvDlError@@@Z @ 17 NONAME ; void CIptvTestDlInfo::DlGoing(unsigned long, unsigned long, class CIptvMyVideosGlobalFileId &, unsigned long, enum TIptvDlError)
	?DlStart@CIptvTestDlInfo@@QAEXKKKKW4TIptvDownloadType@@@Z @ 18 NONAME ; void CIptvTestDlInfo::DlStart(unsigned long, unsigned long, unsigned long, unsigned long, enum TIptvDownloadType)
	?DlStartFailed@CIptvTestDlInfo@@QAEXKKW4TIptvDlError@@@Z @ 19 NONAME ; void CIptvTestDlInfo::DlStartFailed(unsigned long, unsigned long, enum TIptvDlError)
	?DlStop@CIptvTestDlInfo@@QAEXKKKW4TIptvDlError@@@Z @ 20 NONAME ; void CIptvTestDlInfo::DlStop(unsigned long, unsigned long, unsigned long, enum TIptvDlError)
	?DlTimeOut@CIptvTestDlInfo@@QAEXKK@Z @ 21 NONAME ; void CIptvTestDlInfo::DlTimeOut(unsigned long, unsigned long)
	?DlUpdateState@CIptvTestDlInfo@@QAEXKKKW4TIptvDlError@@@Z @ 22 NONAME ; void CIptvTestDlInfo::DlUpdateState(unsigned long, unsigned long, unsigned long, enum TIptvDlError)
	?EcgUpdateStart@CIptvTestEcgUpdateInfo@@QAEXKK@Z @ 23 NONAME ; void CIptvTestEcgUpdateInfo::EcgUpdateStart(unsigned long, unsigned long)
	?EcgUpdateStop@CIptvTestEcgUpdateInfo@@QAEXKHH@Z @ 24 NONAME ; void CIptvTestEcgUpdateInfo::EcgUpdateStop(unsigned long, int, int)
	?EnableVerifyTimestamps@CIptvTestUtilities@@QAEXH@Z @ 25 NONAME ; void CIptvTestUtilities::EnableVerifyTimestamps(int)
	?EnsureFileIsNotInUse@CIptvTestUtilities@@QAEHABVTPtrC16@@@Z @ 26 NONAME ; int CIptvTestUtilities::EnsureFileIsNotInUse(class TPtrC16 const &)
	?GetContentAccessListL@CIptvTestUtilities@@QAEHKKAAV?$RPointerArray@VCIptvMediaContent@@@@@Z @ 27 NONAME ; int CIptvTestUtilities::GetContentAccessListL(unsigned long, unsigned long, class RPointerArray<class CIptvMediaContent> &)
	?GetContentIdsL@CIptvTestUtilities@@QAEHKKAAV?$RArray@K@@KK@Z @ 28 NONAME ; int CIptvTestUtilities::GetContentIdsL(unsigned long, unsigned long, class RArray<unsigned long> &, unsigned long, unsigned long)
	?GetFileSize@CIptvTestUtilities@@QAEHAAVTDesC16@@AAK@Z @ 29 NONAME ; int CIptvTestUtilities::GetFileSize(class TDesC16 &, unsigned long &)
	?GetIapIdByNameL@CIptvTestUtilities@@QAEHABVTDesC16@@AAK@Z @ 30 NONAME ; int CIptvTestUtilities::GetIapIdByNameL(class TDesC16 const &, unsigned long &)
	?GetIapIdByTypeL@CIptvTestUtilities@@QAEHW4TIptvTestIapType@CVCXTestCommon@@AAKH@Z @ 31 NONAME ; int CIptvTestUtilities::GetIapIdByTypeL(enum CVCXTestCommon::TIptvTestIapType, unsigned long &, int)
	?GetIapIdL@CIptvTestUtilities@@QAEHABVTDesC16@@AAK@Z @ 32 NONAME ; int CIptvTestUtilities::GetIapIdL(class TDesC16 const &, unsigned long &)
	?GetIapNameById@CIptvTestUtilities@@QAEHAAVTDes16@@K@Z @ 33 NONAME ; int CIptvTestUtilities::GetIapNameById(class TDes16 &, unsigned long)
	?GetMyVideosVideoDetailsL@CIptvTestUtilities@@QAEHAAVCIptvMyVideosGlobalFileId@@AAVCIptvMyVideosVideoFullDetails@@@Z @ 34 NONAME ; int CIptvTestUtilities::GetMyVideosVideoDetailsL(class CIptvMyVideosGlobalFileId &, class CIptvMyVideosVideoFullDetails &)
	?GetServiceFromDb@CIptvTestUtilities@@QAEPAVCIptvService@@H@Z @ 35 NONAME ; class CIptvService * CIptvTestUtilities::GetServiceFromDb(int)
	?GetServiceIdByNameL@CIptvTestUtilities@@QAEHAAVTDesC16@@AAH@Z @ 36 NONAME ; int CIptvTestUtilities::GetServiceIdByNameL(class TDesC16 &, int &)
	?GetServicesFromDbL@CIptvTestUtilities@@QAEHAAV?$RPointerArray@VCIptvService@@@@@Z @ 37 NONAME ; int CIptvTestUtilities::GetServicesFromDbL(class RPointerArray<class CIptvService> &)
	?GetServicesFromDbL@CIptvTestUtilities@@QAEHAAV?$RPointerArray@VCIptvService@@@@KW4TOrder@CIptvServiceManagementClient@@@Z @ 38 NONAME ; int CIptvTestUtilities::GetServicesFromDbL(class RPointerArray<class CIptvService> &, unsigned long, enum CIptvServiceManagementClient::TOrder)
	?GetUsedIap@CIptvTestUtilities@@QAEHKAAKAAVTDes16@@@Z @ 39 NONAME ; int CIptvTestUtilities::GetUsedIap(unsigned long, unsigned long &, class TDes16 &)
	?GetVodContentAllDetailsListL@CIptvTestUtilities@@QAEXKAAV?$RPointerArray@VCIptvTestVodContentAllDetails@@@@@Z @ 40 NONAME ; void CIptvTestUtilities::GetVodContentAllDetailsListL(unsigned long, class RPointerArray<class CIptvTestVodContentAllDetails> &)
	?GetVodContentContentDetailsL@CIptvTestUtilities@@QAEHKKAAVCIptvVodContentContentFullDetails@@@Z @ 41 NONAME ; int CIptvTestUtilities::GetVodContentContentDetailsL(unsigned long, unsigned long, class CIptvVodContentContentFullDetails &)
	?GetVodEcgCategoryListL@CIptvTestUtilities@@QAEXKKAAV?$RPointerArray@VCIptvVodContentCategoryBriefDetails@@@@@Z @ 42 NONAME ; void CIptvTestUtilities::GetVodEcgCategoryListL(unsigned long, unsigned long, class RPointerArray<class CIptvVodContentCategoryBriefDetails> &)
	?GetVodEcgListL@CIptvTestUtilities@@QAEXKKAAV?$RPointerArray@VCIptvVodContentContentBriefDetails@@@@@Z @ 43 NONAME ; void CIptvTestUtilities::GetVodEcgListL(unsigned long, unsigned long, class RPointerArray<class CIptvVodContentContentBriefDetails> &)
	?Log@CIptvTestLogger@@QAAXV?$TRefByValue@$$CBVTDesC16@@@@ZZ @ 44 NONAME ; void CIptvTestLogger::Log(class TRefByValue<class TDesC16 const >, ...)
	?NewL@CIptvServiceInfo@@SAPAV1@AAV1@@Z @ 45 NONAME ; class CIptvServiceInfo * CIptvServiceInfo::NewL(class CIptvServiceInfo &)
	?NewL@CIptvServiceInfo@@SAPAV1@XZ @ 46 NONAME ; class CIptvServiceInfo * CIptvServiceInfo::NewL(void)
	?NewL@CIptvTestDlFileInfo@@SAPAV1@XZ @ 47 NONAME ; class CIptvTestDlFileInfo * CIptvTestDlFileInfo::NewL(void)
	?NewL@CIptvTestDlInfo@@SAPAV1@XZ @ 48 NONAME ; class CIptvTestDlInfo * CIptvTestDlInfo::NewL(void)
	?NewL@CIptvTestEcgUpdateInfo@@SAPAV1@XZ @ 49 NONAME ; class CIptvTestEcgUpdateInfo * CIptvTestEcgUpdateInfo::NewL(void)
	?NewL@CIptvTestLogger@@SAPAV1@ABVTDesC16@@0@Z @ 50 NONAME ; class CIptvTestLogger * CIptvTestLogger::NewL(class TDesC16 const &, class TDesC16 const &)
	?NewL@CIptvTestUtilities@@SAPAV1@XZ @ 51 NONAME ; class CIptvTestUtilities * CIptvTestUtilities::NewL(void)
	?NewL@CIptvTestVCApiUtil@@SAPAV1@XZ @ 52 NONAME ; class CIptvTestVCApiUtil * CIptvTestVCApiUtil::NewL(void)
	?NewL@CIptvTestVodContentAllDetails@@SAPAV1@XZ @ 53 NONAME ; class CIptvTestVodContentAllDetails * CIptvTestVodContentAllDetails::NewL(void)
	?ParseIntFromString@CIptvTestUtilities@@SAHAAHAAVTDesC16@@@Z @ 54 NONAME ; int CIptvTestUtilities::ParseIntFromString(int &, class TDesC16 &)
	?PrintIaps@CIptvTestUtilities@@QAEXXZ @ 55 NONAME ; void CIptvTestUtilities::PrintIaps(void)
	?PrintIptvService@CIptvTestUtilities@@QAEXPAVCIptvService@@@Z @ 56 NONAME ; void CIptvTestUtilities::PrintIptvService(class CIptvService *)
	?ReallycleanL@CIptvTestUtilities@@QAEHXZ @ 57 NONAME ; int CIptvTestUtilities::ReallycleanL(void)
	?RefreshService@CIptvTestUtilities@@QAEHKVTTime@@@Z @ 58 NONAME ; int CIptvTestUtilities::RefreshService(unsigned long, class TTime)
	?SetDriveFreeSpaceL@CIptvTestUtilities@@QAEXHI@Z @ 59 NONAME ; void CIptvTestUtilities::SetDriveFreeSpaceL(int, unsigned int)
	?SetSystemTime@CIptvTestUtilities@@SAHVTTime@@@Z @ 60 NONAME ; int CIptvTestUtilities::SetSystemTime(class TTime)
	?SetTimeZone@CIptvTestUtilities@@SAHAAVTDesC16@@@Z @ 61 NONAME ; int CIptvTestUtilities::SetTimeZone(class TDesC16 &)
	?SetUsedIap@CIptvTestUtilities@@QAEHKK@Z @ 62 NONAME ; int CIptvTestUtilities::SetUsedIap(unsigned long, unsigned long)
	?VerifyData@CIptvTestUtilities@@QAEHAAVTDesC16@@AAW4TVerifyResult@CIptvTestVerifyData@@@Z @ 63 NONAME ; int CIptvTestUtilities::VerifyData(class TDesC16 &, enum CIptvTestVerifyData::TVerifyResult &)
	?VerifyServices@CIptvTestUtilities@@QAEHAAVCIptvService@@0@Z @ 64 NONAME ; int CIptvTestUtilities::VerifyServices(class CIptvService &, class CIptvService &)
	?WriteLogL@CIptvTestEcgUpdateInfo@@QAAXV?$TRefByValue@$$CBVTDesC16@@@@ZZ @ 65 NONAME ; void CIptvTestEcgUpdateInfo::WriteLogL(class TRefByValue<class TDesC16 const >, ...)
	?WriteLogL@CIptvTestEcgUpdateInfo@@QAEXAAVTDesC16@@@Z @ 66 NONAME ; void CIptvTestEcgUpdateInfo::WriteLogL(class TDesC16 &)
	?WriteVerifyData@CIptvTestUtilities@@QAAHAAVTDesC16@@V?$TRefByValue@$$CBVTDesC16@@@@ZZ @ 67 NONAME ; int CIptvTestUtilities::WriteVerifyData(class TDesC16 &, class TRefByValue<class TDesC16 const >, ...)
	?WriteVerifyData@CIptvTestUtilities@@QAEHAAVTDesC16@@0@Z @ 68 NONAME ; int CIptvTestUtilities::WriteVerifyData(class TDesC16 &, class TDesC16 &)
	?WriteVerifyIptvService@CIptvTestUtilities@@QAEXAAVTDes16@@PAVCIptvService@@@Z @ 69 NONAME ; void CIptvTestUtilities::WriteVerifyIptvService(class TDes16 &, class CIptvService *)

