EXPORTS
	_ZTI32CVCXTestMyVideosCollectionClient @ 1 NONAME ; #<TI>#
	_ZTV32CVCXTestMyVideosCollectionClient @ 2 NONAME ; #<VT>#
	_ZN32CVCXTestMyVideosCollectionClient10VideoCountEv @ 3 NONAME
	_ZN32CVCXTestMyVideosCollectionClient12PrintMediasLEP14CMPXMediaArray @ 4 NONAME
	_ZN32CVCXTestMyVideosCollectionClient12RemoveVideoLEj @ 5 NONAME
	_ZN32CVCXTestMyVideosCollectionClient13DownloadCountEv @ 6 NONAME
	_ZN32CVCXTestMyVideosCollectionClient15CancelDownloadLEj @ 7 NONAME
	_ZN32CVCXTestMyVideosCollectionClient15OpenCollectionLEv @ 8 NONAME
	_ZN32CVCXTestMyVideosCollectionClient15UpdateDownloadLEP9CMPXMedia @ 9 NONAME
	_ZN32CVCXTestMyVideosCollectionClient16CompareDownloadsERK16TVCXTestDownloadS2_ @ 10 NONAME
	_ZN32CVCXTestMyVideosCollectionClient16UpdateVideoListLEi @ 11 NONAME
	_ZN32CVCXTestMyVideosCollectionClient17UpdateMediaArrayLEv @ 12 NONAME
	_ZN32CVCXTestMyVideosCollectionClient18CreateMpxCommandLCEiii @ 13 NONAME
	_ZN32CVCXTestMyVideosCollectionClient18RefreshCollectionLEv @ 14 NONAME
	_ZN32CVCXTestMyVideosCollectionClient19GetCountOfNewVideosEi @ 15 NONAME
	_ZN32CVCXTestMyVideosCollectionClient19UpdateDownloadListLEv @ 16 NONAME
	_ZN32CVCXTestMyVideosCollectionClient20OpenCollectionLevelLEm @ 17 NONAME
	_ZN32CVCXTestMyVideosCollectionClient26GetCountOfOngoingDownloadsEv @ 18 NONAME
	_ZN32CVCXTestMyVideosCollectionClient28EnsureMediaFilesAreNotInUseLEv @ 19 NONAME
	_ZN32CVCXTestMyVideosCollectionClient4NewLEP24MVCXTestMyVideosObserver @ 20 NONAME
	_ZN32CVCXTestMyVideosCollectionClient7LevelsLEv @ 21 NONAME
	_ZN32CVCXTestMyVideosCollectionClient9DownloadLERK7TDesC16jS2_S2_ @ 22 NONAME
	_ZN32CVCXTestMyVideosCollectionClient9GetVideoLEj @ 23 NONAME

