EXPORTS
	_ZN11CIptvEvents12DeleteEventsEv @ 1 NONAME
	_ZN11CIptvEvents12ExternalizeLER12RWriteStream @ 2 NONAME
	_ZN11CIptvEvents12InternalizeLER11RReadStream @ 3 NONAME
	_ZN11CIptvEvents20CountExternalizeSizeEv @ 4 NONAME
	_ZN11CIptvEvents4NewLEP10MIptvEvent @ 5 NONAME
	_ZN11CIptvEvents4SetLERS_ @ 6 NONAME
	_ZN11CIptvEventsD0Ev @ 7 NONAME
	_ZN11CIptvEventsD1Ev @ 8 NONAME
	_ZN11CIptvEventsD2Ev @ 9 NONAME
	_ZN12CIptvService10GetAddressEv @ 10 NONAME
	_ZN12CIptvService10GetGroupIdEv @ 11 NONAME
	_ZN12CIptvService10GetIapListEv @ 12 NONAME
	_ZN12CIptvService10GetIconUrlEv @ 13 NONAME
	_ZN12CIptvService10SetAddressERK7TDesC16 @ 14 NONAME
	_ZN12CIptvService10SetGroupIdEm @ 15 NONAME
	_ZN12CIptvService10SetIconUrlERK7TDesC16 @ 16 NONAME
	_ZN12CIptvService11GetIapNameLEv @ 17 NONAME
	_ZN12CIptvService11GetIconPathEv @ 18 NONAME
	_ZN12CIptvService11GetPasswordEv @ 19 NONAME
	_ZN12CIptvService11GetUserNameEv @ 20 NONAME
	_ZN12CIptvService11SetIapListLER12CIptvIapList @ 21 NONAME
	_ZN12CIptvService11SetIapNameLERK7TDesC16 @ 22 NONAME
	_ZN12CIptvService11SetIconPathERK7TDesC16 @ 23 NONAME
	_ZN12CIptvService11SetPasswordERK7TDesC16 @ 24 NONAME
	_ZN12CIptvService11SetUserNameERK7TDesC16 @ 25 NONAME
	_ZN12CIptvService12InternalizeLER14RDesReadStream @ 26 NONAME
	_ZN12CIptvService13GetProviderIdEv @ 27 NONAME
	_ZN12CIptvService13SetProviderIdERK7TDesC16 @ 28 NONAME
	_ZN12CIptvService13SetRecordUrlLERK7TDesC16 @ 29 NONAME
	_ZN12CIptvService13SetSearchUrlLERK7TDesC16 @ 30 NONAME
	_ZN12CIptvService14GetUseCategoryEv @ 31 NONAME
	_ZN12CIptvService14SetUseCategoryERKi @ 32 NONAME
	_ZN12CIptvService15GetDisplayOrderEv @ 33 NONAME
	_ZN12CIptvService15GetEpgPluginUidEv @ 34 NONAME
	_ZN12CIptvService15GetVodPluginUidEv @ 35 NONAME
	_ZN12CIptvService15SetDisplayOrderEm @ 36 NONAME
	_ZN12CIptvService15SetEpgPluginUidE4TUid @ 37 NONAME
	_ZN12CIptvService15SetVodPluginUidE4TUid @ 38 NONAME
	_ZN12CIptvService16GetIptvPluginUidEv @ 39 NONAME
	_ZN12CIptvService16SetIptvPluginUidE4TUid @ 40 NONAME
	_ZN12CIptvService17GetApplicationUidEv @ 41 NONAME
	_ZN12CIptvService17GetEpgUpdateTimeLEv @ 42 NONAME
	_ZN12CIptvService17SetApplicationUidEl @ 43 NONAME
	_ZN12CIptvService17SetEpgUpdateTimeLERK5TTime @ 44 NONAME
	_ZN12CIptvService17SetScheduleDlTimeEj @ 45 NONAME
	_ZN12CIptvService17SetScheduleDlTypeEj @ 46 NONAME
	_ZN12CIptvService17SetUploadProviderERK7TDesC16 @ 47 NONAME
	_ZN12CIptvService20CountExternalizeSizeEv @ 48 NONAME
	_ZN12CIptvService20SetScheduleDlNetworkEj @ 49 NONAME
	_ZN12CIptvService23GetAccountManagementUrlEv @ 50 NONAME
	_ZN12CIptvService23SetAccountManagementUrlERK7TDesC16 @ 51 NONAME
	_ZN12CIptvService28SetScheduledLastDownloadTimeERK5TTime @ 52 NONAME
	_ZN12CIptvService32SecureProvisioningUrlParametersLEv @ 53 NONAME
	_ZN12CIptvService4GetLEv @ 54 NONAME
	_ZN12CIptvService4NewLEv @ 55 NONAME
	_ZN12CIptvService4SetLERK6TDesC8 @ 56 NONAME
	_ZN12CIptvService5GetIdEv @ 57 NONAME
	_ZN12CIptvService5SetIdEm @ 58 NONAME
	_ZN12CIptvService7GetDescEv @ 59 NONAME
	_ZN12CIptvService7GetNameEv @ 60 NONAME
	_ZN12CIptvService7GetTypeEv @ 61 NONAME
	_ZN12CIptvService7SetDescERK7TDesC16 @ 62 NONAME
	_ZN12CIptvService7SetNameERK7TDesC16 @ 63 NONAME
	_ZN12CIptvService7SetTypeENS_12TServiceTypeE @ 64 NONAME
	_ZN12CIptvService8CompareLERS_ @ 65 NONAME
	_ZN12CIptvService8GetFlagsEv @ 66 NONAME
	_ZN12CIptvService8SetFlagsEm @ 67 NONAME
	_ZN12CIptvService9CountSizeEv @ 68 NONAME
	_ZN12CIptvServiceD0Ev @ 69 NONAME
	_ZN12CIptvServiceD1Ev @ 70 NONAME
	_ZN12CIptvServiceD2Ev @ 71 NONAME
	_ZN12CIptvSmEvent12ExternalizeLER12RWriteStream @ 72 NONAME
	_ZN12CIptvSmEvent12InternalizeLER11RReadStream @ 73 NONAME
	_ZN12CIptvSmEvent20CountExternalizeSizeEv @ 74 NONAME
	_ZN12CIptvSmEvent4NewLEv @ 75 NONAME
	_ZN12CIptvSmEvent8DestructEv @ 76 NONAME
	_ZN12CIptvSmEvent8GetCopyLEv @ 77 NONAME
	_ZN12CIptvSmEventD0Ev @ 78 NONAME
	_ZN12CIptvSmEventD1Ev @ 79 NONAME
	_ZN12CIptvSmEventD2Ev @ 80 NONAME
	_ZN13CIptvServices11GetServiceLEm @ 81 NONAME
	_ZN13CIptvServices12InternalizeLER14RDesReadStream @ 82 NONAME
	_ZN13CIptvServices14GetServiceRefLEm @ 83 NONAME
	_ZN13CIptvServices20CountExternalizeSizeEv @ 84 NONAME
	_ZN13CIptvServices4AddLER12CIptvService @ 85 NONAME
	_ZN13CIptvServices4NewLEv @ 86 NONAME
	_ZN13CIptvServices5CountEv @ 87 NONAME
	_ZN13CIptvServices7ServiceEmRi @ 88 NONAME
	_ZN13CIptvServicesD0Ev @ 89 NONAME
	_ZN13CIptvServicesD1Ev @ 90 NONAME
	_ZN13CIptvServicesD2Ev @ 91 NONAME
	_ZN15CIptvEpgService13SetSearchUrlLERK7TDesC16 @ 92 NONAME
	_ZN15CIptvEpgService4NewLEv @ 93 NONAME
	_ZN15CIptvEpgService9SearchUrlEv @ 94 NONAME
	_ZN16CIptvVodDlClient12DownloadReqLEmmmm17TIptvDownloadType @ 95 NONAME
	_ZN16CIptvVodDlClient12WaitForFlushEv @ 96 NONAME
	_ZN16CIptvVodDlClient14PauseDownloadLER25CIptvMyVideosGlobalFileId @ 97 NONAME
	_ZN16CIptvVodDlClient15CancelDownloadLER25CIptvMyVideosGlobalFileId @ 98 NONAME
	_ZN16CIptvVodDlClient15CancelDownloadLEmm @ 99 NONAME
	_ZN16CIptvVodDlClient15ResumeDownloadLER25CIptvMyVideosGlobalFileIdiRK7TDesC16S4_mi @ 100 NONAME
	_ZN16CIptvVodDlClient15ResumeDownloadLEmmiRK7TDesC16S2_mi @ 101 NONAME
	_ZN16CIptvVodDlClient16GetDownloadListLER22CIptvVodDlDownloadList @ 102 NONAME
	_ZN16CIptvVodDlClient17PauseAllDownloadsEv @ 103 NONAME
	_ZN16CIptvVodDlClient18CancelDownloadReqLER20TIptvVodDlDownloadId @ 104 NONAME
	_ZN16CIptvVodDlClient18ResumeAllDownloadsEv @ 105 NONAME
	_ZN16CIptvVodDlClient20GetDownloadProgressLER25CIptvMyVideosGlobalFileId @ 106 NONAME
	_ZN16CIptvVodDlClient26UpdateDownloadNotificationERK7TDesC16 @ 107 NONAME
	_ZN16CIptvVodDlClient27SetWaitForFlushInDestructorEi @ 108 NONAME
	_ZN16CIptvVodDlClient4NewLER24MIptvVodDlClientObserver @ 109 NONAME
	_ZN16CIptvVodDlClient5NewLCER24MIptvVodDlClientObserver @ 110 NONAME
	_ZN16CIptvVodDlClient9DownloadLEmmmm17TIptvDownloadType @ 111 NONAME
	_ZN16CIptvVodDlClient9PurchaseLEmm @ 112 NONAME
	_ZN16CIptvVodDlClientD0Ev @ 113 NONAME
	_ZN16CIptvVodDlClientD1Ev @ 114 NONAME
	_ZN16CIptvVodDlClientD2Ev @ 115 NONAME
	_ZN17CIptvLiveTvClient13AddServiceIdLEmR14TRequestStatus @ 116 NONAME
	_ZN17CIptvLiveTvClient19UpdateChannelOrderLEmxm @ 117 NONAME
	_ZN17CIptvLiveTvClient4NewLEv @ 118 NONAME
	_ZN17CIptvLiveTvClient7SetIapLEm @ 119 NONAME
	_ZN17CIptvLiveTvClient9UpdateEPGEmR14TRequestStatus @ 120 NONAME
	_ZN17CIptvLiveTvClientD0Ev @ 121 NONAME
	_ZN17CIptvLiveTvClientD1Ev @ 122 NONAME
	_ZN17CIptvLiveTvClientD2Ev @ 123 NONAME
	_ZN18RIptvClientSession11SendRequestEhR14TRequestStatus @ 124 NONAME
	_ZN18RIptvClientSession11SendRequestEhR5TDes8 @ 125 NONAME
	_ZN18RIptvClientSession11SendRequestEhR5TDes8R14TRequestStatus @ 126 NONAME
	_ZN18RIptvClientSession7ConnectEv @ 127 NONAME
	_ZN18RIptvClientSessionC1Ev @ 128 NONAME
	_ZN18RIptvClientSessionC2Ev @ 129 NONAME
	_ZN18RIptvClientSessionD1Ev @ 130 NONAME
	_ZN18RIptvClientSessionD2Ev @ 131 NONAME
	_ZN19CIptvMyVideosClient12CreateVideoLER29CIptvMyVideosVideoFullDetailsN13MIptvMyVideos10TVideoTypeEm @ 132 NONAME
	_ZN19CIptvMyVideosClient12DeleteVideoLER25CIptvMyVideosGlobalFileId @ 133 NONAME
	_ZN19CIptvMyVideosClient13DeleteFolderLER27CIptvMyVideosGlobalFolderId @ 134 NONAME
	_ZN19CIptvMyVideosClient13GetVideoListLER27CIptvMyVideosGlobalFolderIdmmRmR13RPointerArrayI30CIptvMyVideosVideoBriefDetailsE @ 135 NONAME
	_ZN19CIptvMyVideosClient14GetFolderListLER27CIptvMyVideosGlobalFolderIdmmRmR13RPointerArrayI19CIptvMyVideosFolderE @ 136 NONAME
	_ZN19CIptvMyVideosClient14GetFolderNameLER27CIptvMyVideosGlobalFolderIdR6TDes16 @ 137 NONAME
	_ZN19CIptvMyVideosClient15DeleteVideoReqLER25CIptvMyVideosGlobalFileId @ 138 NONAME
	_ZN19CIptvMyVideosClient16DeleteFolderReqLER27CIptvMyVideosGlobalFolderId @ 139 NONAME
	_ZN19CIptvMyVideosClient16EnsureFreeSpaceLER25CIptvMyVideosGlobalFileIdm @ 140 NONAME
	_ZN19CIptvMyVideosClient16EnsureFreeSpaceLER25CIptvMyVideosGlobalFileIdmS1_ @ 141 NONAME
	_ZN19CIptvMyVideosClient16GetParentFolderLER27CIptvMyVideosGlobalFolderIdS1_ @ 142 NONAME
	_ZN19CIptvMyVideosClient16GetVideoDetailsLER25CIptvMyVideosGlobalFileIdR29CIptvMyVideosVideoFullDetails @ 143 NONAME
	_ZN19CIptvMyVideosClient16SetVideoDetailsLER29CIptvMyVideosVideoFullDetails @ 144 NONAME
	_ZN19CIptvMyVideosClient17CancelCopyOrMoveLEv @ 145 NONAME
	_ZN19CIptvMyVideosClient18NewDatabaseFolderLER27CIptvMyVideosGlobalFolderIdR7TDesC16S1_ @ 146 NONAME
	_ZN19CIptvMyVideosClient19DeleteAllDownloadsLEv @ 147 NONAME
	_ZN19CIptvMyVideosClient20GetTotalVideoLengthLERmS0_ @ 148 NONAME
	_ZN19CIptvMyVideosClient21RenameDatabaseFolderLER27CIptvMyVideosGlobalFolderIdR7TDesC16 @ 149 NONAME
	_ZN19CIptvMyVideosClient23GetVideoDetailsForPathLERK7TDesC16R29CIptvMyVideosVideoFullDetails @ 150 NONAME
	_ZN19CIptvMyVideosClient27GetTotalVideoLengthRequestLEv @ 151 NONAME
	_ZN19CIptvMyVideosClient4NewLER27MIptvMyVideosClientObserveri @ 152 NONAME
	_ZN19CIptvMyVideosClient5CopyLER25CIptvMyVideosGlobalFileIdR27CIptvMyVideosGlobalFolderId @ 153 NONAME
	_ZN19CIptvMyVideosClient5CopyLER27CIptvMyVideosGlobalFolderIdS1_Rm @ 154 NONAME
	_ZN19CIptvMyVideosClient5MoveLER25CIptvMyVideosGlobalFileIdR27CIptvMyVideosGlobalFolderId @ 155 NONAME
	_ZN19CIptvMyVideosClient5MoveLER27CIptvMyVideosGlobalFolderIdS1_Rm @ 156 NONAME
	_ZN19CIptvMyVideosClient5NewLCER27MIptvMyVideosClientObserveri @ 157 NONAME
	_ZN19CIptvMyVideosClient8CopyReqLER25CIptvMyVideosGlobalFileIdR27CIptvMyVideosGlobalFolderId @ 158 NONAME
	_ZN19CIptvMyVideosClient8CopyReqLER27CIptvMyVideosGlobalFolderIdS1_ @ 159 NONAME
	_ZN19CIptvMyVideosClient8MoveReqLER25CIptvMyVideosGlobalFileIdR27CIptvMyVideosGlobalFolderId @ 160 NONAME
	_ZN19CIptvMyVideosClient8MoveReqLER27CIptvMyVideosGlobalFolderIdS1_ @ 161 NONAME
	_ZN19CIptvMyVideosFolder12InternalizeLER11RReadStream @ 162 NONAME
	_ZN19CIptvMyVideosFolder20CountExternalizeSizeEv @ 163 NONAME
	_ZN19CIptvMyVideosFolder4NewLEv @ 164 NONAME
	_ZN19CIptvMyVideosFolder5NewLCEv @ 165 NONAME
	_ZN20TIptvVodDlDownloadId12ExternalizeLER12RWriteStream @ 166 NONAME
	_ZN20TIptvVodDlDownloadId12InternalizeLER11RReadStream @ 167 NONAME
	_ZN20TIptvVodDlDownloadId20CountExternalizeSizeEv @ 168 NONAME
	_ZN20TIptvVodDlDownloadId3SetERS_ @ 169 NONAME
	_ZN21CIptvVodContentClient10UpdateEcgLEv @ 170 NONAME
	_ZN21CIptvVodContentClient11GetEcgListLEmR7TDesC16mmRmR13RPointerArrayI34CIptvVodContentContentBriefDetailsE @ 171 NONAME
	_ZN21CIptvVodContentClient12CancelSearchEv @ 172 NONAME
	_ZN21CIptvVodContentClient12CancelUpdateEv @ 173 NONAME
	_ZN21CIptvVodContentClient13ResetGlobalIdER25CIptvMyVideosGlobalFileIdm @ 174 NONAME
	_ZN21CIptvVodContentClient14GetEcgAllListLER7TDesC16mmRmR13RPointerArrayI34CIptvVodContentContentBriefDetailsE @ 175 NONAME
	_ZN21CIptvVodContentClient14GetUpdateTimeLER5TTime @ 176 NONAME
	_ZN21CIptvVodContentClient16SetLastPositionLEmmm @ 177 NONAME
	_ZN21CIptvVodContentClient16UpdateAvailableLERi @ 178 NONAME
	_ZN21CIptvVodContentClient18GetContentDetailsLEmR33CIptvVodContentContentFullDetails @ 179 NONAME
	_ZN21CIptvVodContentClient18GetParentCategoryLEmRm @ 180 NONAME
	_ZN21CIptvVodContentClient19GetCategoryDetailsLEmR35CIptvVodContentCategoryBriefDetails @ 181 NONAME
	_ZN21CIptvVodContentClient19GetEcgCategoryListLEmR13RPointerArrayI35CIptvVodContentCategoryBriefDetailsE @ 182 NONAME
	_ZN21CIptvVodContentClient21GetContentAccessListLEmR13RPointerArrayI17CIptvMediaContentE @ 183 NONAME
	_ZN21CIptvVodContentClient4NewLEmR29MIptvVodContentClientObserver @ 184 NONAME
	_ZN21CIptvVodContentClient5NewLCEmR29MIptvVodContentClientObserver @ 185 NONAME
	_ZN21CIptvVodContentClient6SearchER19TIptvRssSearchQuery @ 186 NONAME
	_ZN21CIptvVodContentClient7SetIapLEm @ 187 NONAME
	_ZN21CIptvVodContentClient9SetMpxIdLEmmm @ 188 NONAME
	_ZN21CIptvVodDlDownloadReq12ExternalizeLER12RWriteStream @ 189 NONAME
	_ZN21CIptvVodDlDownloadReq12InternalizeLER11RReadStream @ 190 NONAME
	_ZN21CIptvVodDlDownloadReq20CountExternalizeSizeEv @ 191 NONAME
	_ZN21CIptvVodDlDownloadReq4NewLEv @ 192 NONAME
	_ZN22CIptvVodDlDownloadList11GetListItemER25CIptvMyVideosGlobalFileId @ 193 NONAME
	_ZN22CIptvVodDlDownloadList11GetListItemEmm @ 194 NONAME
	_ZN22CIptvVodDlDownloadList12ExternalizeLER12RWriteStream @ 195 NONAME
	_ZN22CIptvVodDlDownloadList12InternalizeLER11RReadStream @ 196 NONAME
	_ZN22CIptvVodDlDownloadList20CountExternalizeSizeEv @ 197 NONAME
	_ZN22CIptvVodDlDownloadList4NewLEv @ 198 NONAME
	_ZN22CIptvVodDlDownloadList6DeleteER25CIptvMyVideosGlobalFileId @ 199 NONAME
	_ZN22CIptvVodDlDownloadList6DeleteEmm @ 200 NONAME
	_ZN22CIptvVodDlDownloadListD0Ev @ 201 NONAME
	_ZN22CIptvVodDlDownloadListD1Ev @ 202 NONAME
	_ZN22CIptvVodDlDownloadListD2Ev @ 203 NONAME
	_ZN23CIptvVodDlDownloadEvent12ExternalizeLER12RWriteStream @ 204 NONAME
	_ZN23CIptvVodDlDownloadEvent12InternalizeLER11RReadStream @ 205 NONAME
	_ZN23CIptvVodDlDownloadEvent20CountExternalizeSizeEv @ 206 NONAME
	_ZN23CIptvVodDlDownloadEvent3SetERS_ @ 207 NONAME
	_ZN23CIptvVodDlDownloadEvent4NewLEv @ 208 NONAME
	_ZN23CIptvVodDlDownloadEvent8DestructEv @ 209 NONAME
	_ZN23CIptvVodDlDownloadEvent8GetCopyLEv @ 210 NONAME
	_ZN23CIptvVodDlDownloadEventD0Ev @ 211 NONAME
	_ZN23CIptvVodDlDownloadEventD1Ev @ 212 NONAME
	_ZN23CIptvVodDlDownloadEventD2Ev @ 213 NONAME
	_ZN25CIptvMyVideosGlobalFileId12ExternalizeLER12RWriteStream @ 214 NONAME
	_ZN25CIptvMyVideosGlobalFileId12InternalizeLER11RReadStream @ 215 NONAME
	_ZN25CIptvMyVideosGlobalFileId20CountExternalizeSizeEv @ 216 NONAME
	_ZN25CIptvMyVideosGlobalFileId4NewLEv @ 217 NONAME
	_ZN25CIptvMyVideosGlobalFileId5NewLCEv @ 218 NONAME
	_ZN26CIptvVodDlDownloadListItem12ExternalizeLER12RWriteStream @ 219 NONAME
	_ZN26CIptvVodDlDownloadListItem12InternalizeLER11RReadStream @ 220 NONAME
	_ZN26CIptvVodDlDownloadListItem20CountExternalizeSizeEv @ 221 NONAME
	_ZN26CIptvVodDlDownloadListItem4NewLEv @ 222 NONAME
	_ZN26CIptvVodDlDownloadListItemD0Ev @ 223 NONAME
	_ZN26CIptvVodDlDownloadListItemD1Ev @ 224 NONAME
	_ZN26CIptvVodDlDownloadListItemD2Ev @ 225 NONAME
	_ZN27CIptvMyVideosGlobalFolderId12InternalizeLER11RReadStream @ 226 NONAME
	_ZN27CIptvMyVideosGlobalFolderId14NewRootFolderLEi @ 227 NONAME
	_ZN27CIptvMyVideosGlobalFolderId20CountExternalizeSizeEv @ 228 NONAME
	_ZN27CIptvMyVideosGlobalFolderId4NewLEv @ 229 NONAME
	_ZN27CIptvMyVideosGlobalFolderId5NewLCEv @ 230 NONAME
	_ZN27CIptvVodDlCancelDownloadReq12ExternalizeLER12RWriteStream @ 231 NONAME
	_ZN27CIptvVodDlCancelDownloadReq12InternalizeLER11RReadStream @ 232 NONAME
	_ZN27CIptvVodDlCancelDownloadReq20CountExternalizeSizeEv @ 233 NONAME
	_ZN27CIptvVodDlCancelDownloadReq3SetER20TIptvVodDlDownloadId @ 234 NONAME
	_ZN27CIptvVodDlCancelDownloadReq4NewLEv @ 235 NONAME
	_ZN27CIptvVodDlCancelDownloadReqD0Ev @ 236 NONAME
	_ZN27CIptvVodDlCancelDownloadReqD1Ev @ 237 NONAME
	_ZN27CIptvVodDlCancelDownloadReqD2Ev @ 238 NONAME
	_ZN27CIptvVodDlResumeDownloadReq12ExternalizeLER12RWriteStream @ 239 NONAME
	_ZN27CIptvVodDlResumeDownloadReq12InternalizeLER11RReadStream @ 240 NONAME
	_ZN27CIptvVodDlResumeDownloadReq20CountExternalizeSizeEv @ 241 NONAME
	_ZN27CIptvVodDlResumeDownloadReq4NewLEv @ 242 NONAME
	_ZN27CIptvVodDlResumeDownloadReqD0Ev @ 243 NONAME
	_ZN27CIptvVodDlResumeDownloadReqD1Ev @ 244 NONAME
	_ZN27CIptvVodDlResumeDownloadReqD2Ev @ 245 NONAME
	_ZN28CIptvServiceManagementClient11AddServiceLER12CIptvServiceRN36MIptvServiceManagementClientObserver11TRespStatusE @ 246 NONAME
	_ZN28CIptvServiceManagementClient11GetUsedIapLEmRmR6TDes16RN21CIptvNetworkSelection21TConnectionPermissionERNS3_11TRespStatusE @ 247 NONAME
	_ZN28CIptvServiceManagementClient11SetAllIapsLER12CIptvIapListiRN36MIptvServiceManagementClientObserver11TRespStatusE @ 248 NONAME
	_ZN28CIptvServiceManagementClient11SetUsedIapLEmmiRN21CIptvNetworkSelection11TRespStatusE @ 249 NONAME
	_ZN28CIptvServiceManagementClient12ClearUsedIapEv @ 250 NONAME
	_ZN28CIptvServiceManagementClient12GetServicesLERK7TDesC16R13CIptvServices @ 251 NONAME
	_ZN28CIptvServiceManagementClient12GetServicesLEmNS_6TOrderERP14CDesC8ArraySegRN36MIptvServiceManagementClientObserver11TRespStatusE @ 252 NONAME
	_ZN28CIptvServiceManagementClient12GetServicesLEmmRP14CDesC8ArraySegRN36MIptvServiceManagementClientObserver11TRespStatusE @ 253 NONAME
	_ZN28CIptvServiceManagementClient13CancelRequestEv @ 254 NONAME
	_ZN28CIptvServiceManagementClient14AddServiceReqLER12CIptvService @ 255 NONAME
	_ZN28CIptvServiceManagementClient14DeleteServiceLEmRN36MIptvServiceManagementClientObserver11TRespStatusE @ 256 NONAME
	_ZN28CIptvServiceManagementClient14GetUsedIapReqLEm @ 257 NONAME
	_ZN28CIptvServiceManagementClient14ServerShutdownERN36MIptvServiceManagementClientObserver11TRespStatusE @ 258 NONAME
	_ZN28CIptvServiceManagementClient14SetAllIapsReqLER12CIptvIapListi @ 259 NONAME
	_ZN28CIptvServiceManagementClient14UpdateServiceLER12CIptvServiceRN36MIptvServiceManagementClientObserver11TRespStatusE @ 260 NONAME
	_ZN28CIptvServiceManagementClient15GetServicesReqLEmNS_6TOrderE @ 261 NONAME
	_ZN28CIptvServiceManagementClient15GetServicesReqLEmm @ 262 NONAME
	_ZN28CIptvServiceManagementClient17DeleteServiceReqLEm @ 263 NONAME
	_ZN28CIptvServiceManagementClient17ServerShutdownReqEv @ 264 NONAME
	_ZN28CIptvServiceManagementClient17UpdateServiceReqLER12CIptvService @ 265 NONAME
	_ZN28CIptvServiceManagementClient20IsConnectionAllowedLEmRN21CIptvNetworkSelection21TConnectionPermissionERNS0_11TRespStatusE @ 266 NONAME
	_ZN28CIptvServiceManagementClient21SetConnectionAllowedLEimRN21CIptvNetworkSelection11TRespStatusE @ 267 NONAME
	_ZN28CIptvServiceManagementClient4NewLER36MIptvServiceManagementClientObserver @ 268 NONAME
	_ZN28CIptvServiceManagementClientC1ER36MIptvServiceManagementClientObserver @ 269 NONAME
	_ZN28CIptvServiceManagementClientC2ER36MIptvServiceManagementClientObserver @ 270 NONAME
	_ZN28CIptvServiceManagementClientD0Ev @ 271 NONAME
	_ZN28CIptvServiceManagementClientD1Ev @ 272 NONAME
	_ZN28CIptvServiceManagementClientD2Ev @ 273 NONAME
	_ZN29CIptvMyVideosVideoFullDetails10SetAuthorLERK7TDesC16 @ 274 NONAME
	_ZN29CIptvMyVideosVideoFullDetails12InternalizeLER11RReadStream @ 275 NONAME
	_ZN29CIptvMyVideosVideoFullDetails12SetMDSOriginEi @ 276 NONAME
	_ZN29CIptvMyVideosVideoFullDetails12SetMimeTypeLERK7TDesC16 @ 277 NONAME
	_ZN29CIptvMyVideosVideoFullDetails13LastPlayPointEv @ 278 NONAME
	_ZN29CIptvMyVideosVideoFullDetails13SetCopyrightLERK7TDesC16 @ 279 NONAME
	_ZN29CIptvMyVideosVideoFullDetails13SetVideoPathLERK7TDesC16 @ 280 NONAME
	_ZN29CIptvMyVideosVideoFullDetails15SetDescriptionLERK7TDesC16 @ 281 NONAME
	_ZN29CIptvMyVideosVideoFullDetails16SetLastPlayPointEf @ 282 NONAME
	_ZN29CIptvMyVideosVideoFullDetails17SetAudioLanguageLERK7TDesC16 @ 283 NONAME
	_ZN29CIptvMyVideosVideoFullDetails18SetFileSourceNameLERK7TDesC16 @ 284 NONAME
	_ZN29CIptvMyVideosVideoFullDetails20CountExternalizeSizeEv @ 285 NONAME
	_ZN29CIptvMyVideosVideoFullDetails4NewLEv @ 286 NONAME
	_ZN29CIptvMyVideosVideoFullDetails5NewLCEv @ 287 NONAME
	_ZN29CIptvMyVideosVideoFullDetails9MDSOriginEv @ 288 NONAME
	_ZN29CIptvVodContentUpdateObserver4NewLER29MIptvVodContentClientObserverR18RIptvClientSessionm @ 289 NONAME
	_ZN30CIptvMyVideosVideoBriefDetails11SetFileSizeEi @ 290 NONAME
	_ZN30CIptvMyVideosVideoBriefDetails11SetPlayTimeEf @ 291 NONAME
	_ZN30CIptvMyVideosVideoBriefDetails12InternalizeLER11RReadStream @ 292 NONAME
	_ZN30CIptvMyVideosVideoBriefDetails17SetThumbnailPathLERK7TDesC16 @ 293 NONAME
	_ZN30CIptvMyVideosVideoBriefDetails20CountExternalizeSizeEv @ 294 NONAME
	_ZN30CIptvMyVideosVideoBriefDetails4NewLEv @ 295 NONAME
	_ZN30CIptvMyVideosVideoBriefDetails5NewLCEv @ 296 NONAME
	_ZN30CIptvMyVideosVideoBriefDetails8FileSizeEv @ 297 NONAME
	_ZN30CIptvMyVideosVideoBriefDetails8PlayTimeEv @ 298 NONAME
	_ZN30CIptvMyVideosVideoBriefDetails8SetNameLERK7TDesC16 @ 299 NONAME
	_ZN33CIptvVodContentContentFullDetails12InternalizeLER11RReadStream @ 300 NONAME
	_ZN33CIptvVodContentContentFullDetails20CountExternalizeSizeEv @ 301 NONAME
	_ZN33CIptvVodContentContentFullDetails4NewLEv @ 302 NONAME
	_ZN34CIptvVodContentContentBriefDetails12InternalizeLER11RReadStream @ 303 NONAME
	_ZN34CIptvVodContentContentBriefDetails14GetBrowserUrlLEv @ 304 NONAME
	_ZN34CIptvVodContentContentBriefDetails14SetBrowserUrlLERK7TDesC16 @ 305 NONAME
	_ZN34CIptvVodContentContentBriefDetails20CountExternalizeSizeEv @ 306 NONAME
	_ZN34CIptvVodContentContentBriefDetails4NewLEv @ 307 NONAME
	_ZN35CIptvVodContentCategoryBriefDetails12InternalizeLER11RReadStream @ 308 NONAME
	_ZN35CIptvVodContentCategoryBriefDetails20CountExternalizeSizeEv @ 309 NONAME
	_ZN35CIptvVodContentCategoryBriefDetails4NewLEv @ 310 NONAME
	_ZNK12CIptvService12ExternalizeLER15RDesWriteStream @ 311 NONAME
	_ZNK12CIptvService14ScheduleDlTimeEv @ 312 NONAME
	_ZNK12CIptvService14ScheduleDlTypeEv @ 313 NONAME
	_ZNK12CIptvService17GetUploadProviderEv @ 314 NONAME
	_ZNK12CIptvService17ScheduleDlNetworkEv @ 315 NONAME
	_ZNK12CIptvService28GetScheduledLastDownloadTimeEv @ 316 NONAME
	_ZNK12CIptvService9RecordUrlEv @ 317 NONAME
	_ZNK12CIptvService9SearchUrlEv @ 318 NONAME
	_ZNK13CIptvServices12ExternalizeLER15RDesWriteStream @ 319 NONAME
	_ZNK18RIptvClientSession11SendRequestEh @ 320 NONAME
	_ZNK18RIptvClientSession7VersionEv @ 321 NONAME
	_ZNK19CIptvMyVideosFolder12ExternalizeLER12RWriteStream @ 322 NONAME
	_ZNK27CIptvMyVideosGlobalFolderId12ExternalizeLER12RWriteStream @ 323 NONAME
	_ZNK29CIptvMyVideosVideoFullDetails11DescriptionEv @ 324 NONAME
	_ZNK29CIptvMyVideosVideoFullDetails12ExternalizeLER12RWriteStream @ 325 NONAME
	_ZNK29CIptvMyVideosVideoFullDetails13AudioLanguageEv @ 326 NONAME
	_ZNK29CIptvMyVideosVideoFullDetails14FileSourceNameEv @ 327 NONAME
	_ZNK29CIptvMyVideosVideoFullDetails6AuthorEv @ 328 NONAME
	_ZNK29CIptvMyVideosVideoFullDetails8MimeTypeEv @ 329 NONAME
	_ZNK29CIptvMyVideosVideoFullDetails9CopyrightEv @ 330 NONAME
	_ZNK29CIptvMyVideosVideoFullDetails9VideoPathEv @ 331 NONAME
	_ZNK30CIptvMyVideosVideoBriefDetails12ExternalizeLER12RWriteStream @ 332 NONAME
	_ZNK30CIptvMyVideosVideoBriefDetails13ThumbnailPathEv @ 333 NONAME
	_ZNK30CIptvMyVideosVideoBriefDetails4NameEv @ 334 NONAME
	_ZNK33CIptvVodContentContentFullDetails12ExternalizeLER12RWriteStream @ 335 NONAME
	_ZNK34CIptvVodContentContentBriefDetails12ExternalizeLER12RWriteStream @ 336 NONAME
	_ZNK35CIptvVodContentCategoryBriefDetails12ExternalizeLER12RWriteStream @ 337 NONAME
	_ZTI11CIptvEvents @ 338 NONAME ; #<TI>#
	_ZTI12CIptvService @ 339 NONAME ; #<TI>#
	_ZTI12CIptvSmEvent @ 340 NONAME ; #<TI>#
	_ZTI13CIptvServices @ 341 NONAME ; #<TI>#
	_ZTI15CIptvClientBase @ 342 NONAME ; #<TI>#
	_ZTI15CIptvEpgService @ 343 NONAME ; #<TI>#
	_ZTI16CIptvVodDlClient @ 344 NONAME ; #<TI>#
	_ZTI17CIptvLiveTvClient @ 345 NONAME ; #<TI>#
	_ZTI18CIptvEventListener @ 346 NONAME ; #<TI>#
	_ZTI19CIptvMyVideosClient @ 347 NONAME ; #<TI>#
	_ZTI19CIptvMyVideosFolder @ 348 NONAME ; #<TI>#
	_ZTI20TIptvVodDlDownloadId @ 349 NONAME ; #<TI>#
	_ZTI21CIptvVodContentClient @ 350 NONAME ; #<TI>#
	_ZTI21CIptvVodDlDownloadReq @ 351 NONAME ; #<TI>#
	_ZTI22CIptvVodDlDownloadList @ 352 NONAME ; #<TI>#
	_ZTI23CIptvVodDlDownloadEvent @ 353 NONAME ; #<TI>#
	_ZTI25CIptvMyVideosGlobalFileId @ 354 NONAME ; #<TI>#
	_ZTI26CIptvVodDlDownloadListItem @ 355 NONAME ; #<TI>#
	_ZTI27CIptvMyVideosGlobalFolderId @ 356 NONAME ; #<TI>#
	_ZTI27CIptvVodDlCancelDownloadReq @ 357 NONAME ; #<TI>#
	_ZTI27CIptvVodDlResumeDownloadReq @ 358 NONAME ; #<TI>#
	_ZTI28CIptvServiceManagementClient @ 359 NONAME ; #<TI>#
	_ZTI29CIptvMyVideosVideoFullDetails @ 360 NONAME ; #<TI>#
	_ZTI29CIptvVodContentUpdateObserver @ 361 NONAME ; #<TI>#
	_ZTI30CIptvMyVideosVideoBriefDetails @ 362 NONAME ; #<TI>#
	_ZTI31CIptvMyVideosCopyOrMoveObserver @ 363 NONAME ; #<TI>#
	_ZTI33CIptvSecureProvisioningParameters @ 364 NONAME ; #<TI>#
	_ZTI33CIptvVodContentContentFullDetails @ 365 NONAME ; #<TI>#
	_ZTI34CIptvMyVideosContentUpdateObserver @ 366 NONAME ; #<TI>#
	_ZTI34CIptvVodContentContentBriefDetails @ 367 NONAME ; #<TI>#
	_ZTI35CIptvVodContentCategoryBriefDetails @ 368 NONAME ; #<TI>#
	_ZTI37CIptvMyVideosTotalVideoLengthObserver @ 369 NONAME ; #<TI>#
	_ZTV11CIptvEvents @ 370 NONAME ; #<VT>#
	_ZTV12CIptvService @ 371 NONAME ; #<VT>#
	_ZTV12CIptvSmEvent @ 372 NONAME ; #<VT>#
	_ZTV13CIptvServices @ 373 NONAME ; #<VT>#
	_ZTV15CIptvClientBase @ 374 NONAME ; #<VT>#
	_ZTV15CIptvEpgService @ 375 NONAME ; #<VT>#
	_ZTV16CIptvVodDlClient @ 376 NONAME ; #<VT>#
	_ZTV17CIptvLiveTvClient @ 377 NONAME ; #<VT>#
	_ZTV18CIptvEventListener @ 378 NONAME ; #<VT>#
	_ZTV19CIptvMyVideosClient @ 379 NONAME ; #<VT>#
	_ZTV19CIptvMyVideosFolder @ 380 NONAME ; #<VT>#
	_ZTV20TIptvVodDlDownloadId @ 381 NONAME ; #<VT>#
	_ZTV21CIptvVodContentClient @ 382 NONAME ; #<VT>#
	_ZTV21CIptvVodDlDownloadReq @ 383 NONAME ; #<VT>#
	_ZTV22CIptvVodDlDownloadList @ 384 NONAME ; #<VT>#
	_ZTV23CIptvVodDlDownloadEvent @ 385 NONAME ; #<VT>#
	_ZTV25CIptvMyVideosGlobalFileId @ 386 NONAME ; #<VT>#
	_ZTV26CIptvVodDlDownloadListItem @ 387 NONAME ; #<VT>#
	_ZTV27CIptvMyVideosGlobalFolderId @ 388 NONAME ; #<VT>#
	_ZTV27CIptvVodDlCancelDownloadReq @ 389 NONAME ; #<VT>#
	_ZTV27CIptvVodDlResumeDownloadReq @ 390 NONAME ; #<VT>#
	_ZTV28CIptvServiceManagementClient @ 391 NONAME ; #<VT>#
	_ZTV29CIptvMyVideosVideoFullDetails @ 392 NONAME ; #<VT>#
	_ZTV29CIptvVodContentUpdateObserver @ 393 NONAME ; #<VT>#
	_ZTV30CIptvMyVideosVideoBriefDetails @ 394 NONAME ; #<VT>#
	_ZTV31CIptvMyVideosCopyOrMoveObserver @ 395 NONAME ; #<VT>#
	_ZTV33CIptvSecureProvisioningParameters @ 396 NONAME ; #<VT>#
	_ZTV33CIptvVodContentContentFullDetails @ 397 NONAME ; #<VT>#
	_ZTV34CIptvMyVideosContentUpdateObserver @ 398 NONAME ; #<VT>#
	_ZTV34CIptvVodContentContentBriefDetails @ 399 NONAME ; #<VT>#
	_ZTV35CIptvVodContentCategoryBriefDetails @ 400 NONAME ; #<VT>#
	_ZTV37CIptvMyVideosTotalVideoLengthObserver @ 401 NONAME ; #<VT>#
	_ZThn28_N19CIptvMyVideosClient12CreateVideoLER29CIptvMyVideosVideoFullDetailsN13MIptvMyVideos10TVideoTypeEm @ 402 NONAME ; #<thunk>#
	_ZThn28_N19CIptvMyVideosClient12DeleteVideoLER25CIptvMyVideosGlobalFileId @ 403 NONAME ; #<thunk>#
	_ZThn28_N19CIptvMyVideosClient13DeleteFolderLER27CIptvMyVideosGlobalFolderId @ 404 NONAME ; #<thunk>#
	_ZThn28_N19CIptvMyVideosClient13GetVideoListLER27CIptvMyVideosGlobalFolderIdmmRmR13RPointerArrayI30CIptvMyVideosVideoBriefDetailsE @ 405 NONAME ; #<thunk>#
	_ZThn28_N19CIptvMyVideosClient14GetFolderListLER27CIptvMyVideosGlobalFolderIdmmRmR13RPointerArrayI19CIptvMyVideosFolderE @ 406 NONAME ; #<thunk>#
	_ZThn28_N19CIptvMyVideosClient14GetFolderNameLER27CIptvMyVideosGlobalFolderIdR6TDes16 @ 407 NONAME ; #<thunk>#
	_ZThn28_N19CIptvMyVideosClient15DeleteVideoReqLER25CIptvMyVideosGlobalFileId @ 408 NONAME ; #<thunk>#
	_ZThn28_N19CIptvMyVideosClient16DeleteFolderReqLER27CIptvMyVideosGlobalFolderId @ 409 NONAME ; #<thunk>#
	_ZThn28_N19CIptvMyVideosClient16EnsureFreeSpaceLER25CIptvMyVideosGlobalFileIdm @ 410 NONAME ; #<thunk>#
	_ZThn28_N19CIptvMyVideosClient16EnsureFreeSpaceLER25CIptvMyVideosGlobalFileIdmS1_ @ 411 NONAME ; #<thunk>#
	_ZThn28_N19CIptvMyVideosClient16GetParentFolderLER27CIptvMyVideosGlobalFolderIdS1_ @ 412 NONAME ; #<thunk>#
	_ZThn28_N19CIptvMyVideosClient16GetVideoDetailsLER25CIptvMyVideosGlobalFileIdR29CIptvMyVideosVideoFullDetails @ 413 NONAME ; #<thunk>#
	_ZThn28_N19CIptvMyVideosClient16SetVideoDetailsLER29CIptvMyVideosVideoFullDetails @ 414 NONAME ; #<thunk>#
	_ZThn28_N19CIptvMyVideosClient17CancelCopyOrMoveLEv @ 415 NONAME ; #<thunk>#
	_ZThn28_N19CIptvMyVideosClient18NewDatabaseFolderLER27CIptvMyVideosGlobalFolderIdR7TDesC16S1_ @ 416 NONAME ; #<thunk>#
	_ZThn28_N19CIptvMyVideosClient19DeleteAllDownloadsLEv @ 417 NONAME ; #<thunk>#
	_ZThn28_N19CIptvMyVideosClient20GetTotalVideoLengthLERmS0_ @ 418 NONAME ; #<thunk>#
	_ZThn28_N19CIptvMyVideosClient21RenameDatabaseFolderLER27CIptvMyVideosGlobalFolderIdR7TDesC16 @ 419 NONAME ; #<thunk>#
	_ZThn28_N19CIptvMyVideosClient23GetVideoDetailsForPathLERK7TDesC16R29CIptvMyVideosVideoFullDetails @ 420 NONAME ; #<thunk>#
	_ZThn28_N19CIptvMyVideosClient27GetTotalVideoLengthRequestLEv @ 421 NONAME ; #<thunk>#
	_ZThn28_N19CIptvMyVideosClient5CopyLER25CIptvMyVideosGlobalFileIdR27CIptvMyVideosGlobalFolderId @ 422 NONAME ; #<thunk>#
	_ZThn28_N19CIptvMyVideosClient5CopyLER27CIptvMyVideosGlobalFolderIdS1_Rm @ 423 NONAME ; #<thunk>#
	_ZThn28_N19CIptvMyVideosClient5MoveLER25CIptvMyVideosGlobalFileIdR27CIptvMyVideosGlobalFolderId @ 424 NONAME ; #<thunk>#
	_ZThn28_N19CIptvMyVideosClient5MoveLER27CIptvMyVideosGlobalFolderIdS1_Rm @ 425 NONAME ; #<thunk>#
	_ZThn28_N19CIptvMyVideosClient8CopyReqLER25CIptvMyVideosGlobalFileIdR27CIptvMyVideosGlobalFolderId @ 426 NONAME ; #<thunk>#
	_ZThn28_N19CIptvMyVideosClient8CopyReqLER27CIptvMyVideosGlobalFolderIdS1_ @ 427 NONAME ; #<thunk>#
	_ZThn28_N19CIptvMyVideosClient8MoveReqLER25CIptvMyVideosGlobalFileIdR27CIptvMyVideosGlobalFolderId @ 428 NONAME ; #<thunk>#
	_ZThn28_N19CIptvMyVideosClient8MoveReqLER27CIptvMyVideosGlobalFolderIdS1_ @ 429 NONAME ; #<thunk>#
	_ZThn28_N21CIptvVodContentClient10UpdateEcgLEv @ 430 NONAME ; #<thunk>#
	_ZThn28_N21CIptvVodContentClient11GetEcgListLEmR7TDesC16mmRmR13RPointerArrayI34CIptvVodContentContentBriefDetailsE @ 431 NONAME ; #<thunk>#
	_ZThn28_N21CIptvVodContentClient14GetEcgAllListLER7TDesC16mmRmR13RPointerArrayI34CIptvVodContentContentBriefDetailsE @ 432 NONAME ; #<thunk>#
	_ZThn28_N21CIptvVodContentClient14GetUpdateTimeLER5TTime @ 433 NONAME ; #<thunk>#
	_ZThn28_N21CIptvVodContentClient16SetLastPositionLEmmm @ 434 NONAME ; #<thunk>#
	_ZThn28_N21CIptvVodContentClient18GetContentDetailsLEmR33CIptvVodContentContentFullDetails @ 435 NONAME ; #<thunk>#
	_ZThn28_N21CIptvVodContentClient18GetParentCategoryLEmRm @ 436 NONAME ; #<thunk>#
	_ZThn28_N21CIptvVodContentClient19GetCategoryDetailsLEmR35CIptvVodContentCategoryBriefDetails @ 437 NONAME ; #<thunk>#
	_ZThn28_N21CIptvVodContentClient19GetEcgCategoryListLEmR13RPointerArrayI35CIptvVodContentCategoryBriefDetailsE @ 438 NONAME ; #<thunk>#
	_ZThn28_N21CIptvVodContentClient21GetContentAccessListLEmR13RPointerArrayI17CIptvMediaContentE @ 439 NONAME ; #<thunk>#
	_ZThn28_N21CIptvVodContentClient7SetIapLEm @ 440 NONAME ; #<thunk>#
	_ZThn28_N21CIptvVodContentClient9SetMpxIdLEmmm @ 441 NONAME ; #<thunk>#
	_ZThn4_N11CIptvEvents12ExternalizeLER12RWriteStream @ 442 NONAME ; #<thunk>#
	_ZThn4_N11CIptvEvents12InternalizeLER11RReadStream @ 443 NONAME ; #<thunk>#
	_ZThn4_N11CIptvEvents20CountExternalizeSizeEv @ 444 NONAME ; #<thunk>#
	_ZThn4_N12CIptvSmEvent12ExternalizeLER12RWriteStream @ 445 NONAME ; #<thunk>#
	_ZThn4_N12CIptvSmEvent12InternalizeLER11RReadStream @ 446 NONAME ; #<thunk>#
	_ZThn4_N12CIptvSmEvent20CountExternalizeSizeEv @ 447 NONAME ; #<thunk>#
	_ZThn4_N12CIptvSmEvent8DestructEv @ 448 NONAME ; #<thunk>#
	_ZThn4_N12CIptvSmEvent8GetCopyLEv @ 449 NONAME ; #<thunk>#
	_ZThn4_N21CIptvVodDlDownloadReq12ExternalizeLER12RWriteStream @ 450 NONAME ; #<thunk>#
	_ZThn4_N21CIptvVodDlDownloadReq12InternalizeLER11RReadStream @ 451 NONAME ; #<thunk>#
	_ZThn4_N21CIptvVodDlDownloadReq20CountExternalizeSizeEv @ 452 NONAME ; #<thunk>#
	_ZThn4_N22CIptvVodDlDownloadList12ExternalizeLER12RWriteStream @ 453 NONAME ; #<thunk>#
	_ZThn4_N22CIptvVodDlDownloadList12InternalizeLER11RReadStream @ 454 NONAME ; #<thunk>#
	_ZThn4_N22CIptvVodDlDownloadList20CountExternalizeSizeEv @ 455 NONAME ; #<thunk>#
	_ZThn4_N23CIptvVodDlDownloadEvent12ExternalizeLER12RWriteStream @ 456 NONAME ; #<thunk>#
	_ZThn4_N23CIptvVodDlDownloadEvent12InternalizeLER11RReadStream @ 457 NONAME ; #<thunk>#
	_ZThn4_N23CIptvVodDlDownloadEvent20CountExternalizeSizeEv @ 458 NONAME ; #<thunk>#
	_ZThn4_N23CIptvVodDlDownloadEvent8DestructEv @ 459 NONAME ; #<thunk>#
	_ZThn4_N23CIptvVodDlDownloadEvent8GetCopyLEv @ 460 NONAME ; #<thunk>#
	_ZThn4_N25CIptvMyVideosGlobalFileId12ExternalizeLER12RWriteStream @ 461 NONAME ; #<thunk>#
	_ZThn4_N25CIptvMyVideosGlobalFileId12InternalizeLER11RReadStream @ 462 NONAME ; #<thunk>#
	_ZThn4_N25CIptvMyVideosGlobalFileId20CountExternalizeSizeEv @ 463 NONAME ; #<thunk>#
	_ZThn4_N27CIptvVodDlCancelDownloadReq12ExternalizeLER12RWriteStream @ 464 NONAME ; #<thunk>#
	_ZThn4_N27CIptvVodDlCancelDownloadReq12InternalizeLER11RReadStream @ 465 NONAME ; #<thunk>#
	_ZThn4_N27CIptvVodDlCancelDownloadReq20CountExternalizeSizeEv @ 466 NONAME ; #<thunk>#
	_ZThn4_N27CIptvVodDlResumeDownloadReq12ExternalizeLER12RWriteStream @ 467 NONAME ; #<thunk>#
	_ZThn4_N27CIptvVodDlResumeDownloadReq12InternalizeLER11RReadStream @ 468 NONAME ; #<thunk>#
	_ZThn4_N27CIptvVodDlResumeDownloadReq20CountExternalizeSizeEv @ 469 NONAME ; #<thunk>#
	_ZN21CIptvVodContentClient11CheckGroupLEv @ 470 NONAME

