EXPORTS
	??0CIptvContentHandlerBase@@IAE@XZ @ 1 NONAME ; CIptvContentHandlerBase::CIptvContentHandlerBase(void)
	??1CIptvContentHandlerBase@@UAE@XZ @ 2 NONAME ; CIptvContentHandlerBase::~CIptvContentHandlerBase(void)
	??1CIptvLiveUIImageHandler@@UAE@XZ @ 3 NONAME ; CIptvLiveUIImageHandler::~CIptvLiveUIImageHandler(void)
	??1CIptvLiveUIObjectTimer@@UAE@XZ @ 4 NONAME ; CIptvLiveUIObjectTimer::~CIptvLiveUIObjectTimer(void)
	??1CIptvSettingsDatabase@@UAE@XZ @ 5 NONAME ; CIptvSettingsDatabase::~CIptvSettingsDatabase(void)
	?AddChannelL@CIptvEpgDatabase@@QAEXABVCIptvEpgChannel@@AAK@Z @ 6 NONAME ; void CIptvEpgDatabase::AddChannelL(class CIptvEpgChannel const &, unsigned long &)
	?AddProgramL@CIptvEpgDatabase@@QAEXABVCIptvEpgProgram@@AAK@Z @ 7 NONAME ; void CIptvEpgDatabase::AddProgramL(class CIptvEpgProgram const &, unsigned long &)
	?AddProgramWithScheduleL@CIptvEpgDatabase@@QAEXAAVCIptvEpgProgramWithSchedule@@AAK@Z @ 8 NONAME ; void CIptvEpgDatabase::AddProgramWithScheduleL(class CIptvEpgProgramWithSchedule &, unsigned long &)
	?AddProgramsL@CIptvEpgDatabase@@QAEXABV?$RPointerArray@VCIptvEpgProgram@@@@@Z @ 9 NONAME ; void CIptvEpgDatabase::AddProgramsL(class RPointerArray<class CIptvEpgProgram> const &)
	?AddProgramsWithSchedulesL@CIptvEpgDatabase@@QAEXABV?$RPointerArray@VCIptvEpgProgramWithSchedule@@@@@Z @ 10 NONAME ; void CIptvEpgDatabase::AddProgramsWithSchedulesL(class RPointerArray<class CIptvEpgProgramWithSchedule> const &)
	?AddScheduleL@CIptvEpgDatabase@@QAEXABVCIptvEpgSchedule@@@Z @ 11 NONAME ; void CIptvEpgDatabase::AddScheduleL(class CIptvEpgSchedule const &)
	?AddSchedulesL@CIptvEpgDatabase@@QAEXABV?$RPointerArray@VCIptvEpgSchedule@@@@@Z @ 12 NONAME ; void CIptvEpgDatabase::AddSchedulesL(class RPointerArray<class CIptvEpgSchedule> const &)
	?BaseConstructL@CIptvContentHandlerBase@@IAEXXZ @ 13 NONAME ; void CIptvContentHandlerBase::BaseConstructL(void)
	?ChannelDescription@CIptvEpgChannel@@QBEAAVTDesC16@@XZ @ 14 NONAME ; class TDesC16 & CIptvEpgChannel::ChannelDescription(void) const
	?ChannelIcon@CIptvEpgChannel@@QAEPAVCFbsBitmap@@XZ @ 15 NONAME ; class CFbsBitmap * CIptvEpgChannel::ChannelIcon(void)
	?ChannelId@CIptvEpgChannel@@QBE_JXZ @ 16 NONAME ; long long CIptvEpgChannel::ChannelId(void) const
	?ChannelId@CIptvEpgProgram@@QBE_JXZ @ 17 NONAME ; long long CIptvEpgProgram::ChannelId(void) const
	?ChannelLogoPath@CIptvEpgChannel@@QBEAAVTDesC16@@XZ @ 18 NONAME ; class TDesC16 & CIptvEpgChannel::ChannelLogoPath(void) const
	?ChannelName@CIptvEpgChannel@@QBEAAVTDesC16@@XZ @ 19 NONAME ; class TDesC16 & CIptvEpgChannel::ChannelName(void) const
	?ChannelOrder@CIptvEpgChannel@@QBEKXZ @ 20 NONAME ; unsigned long CIptvEpgChannel::ChannelOrder(void) const
	?ChannelSDP@CIptvEpgChannel@@QBEAAVTDesC16@@XZ @ 21 NONAME ; class TDesC16 & CIptvEpgChannel::ChannelSDP(void) const
	?ChannelURI@CIptvEpgChannel@@QBEAAVTDesC16@@XZ @ 22 NONAME ; class TDesC16 & CIptvEpgChannel::ChannelURI(void) const
	?ClearServiceEPGDataL@CIptvEpgDatabase@@QAEXK@Z @ 23 NONAME ; void CIptvEpgDatabase::ClearServiceEPGDataL(unsigned long)
	?DeleteChannelL@CIptvEpgDatabase@@QAEXK_J@Z @ 24 NONAME ; void CIptvEpgDatabase::DeleteChannelL(unsigned long, long long)
	?DeleteProgramL@CIptvEpgDatabase@@QAEXK_J@Z @ 25 NONAME ; void CIptvEpgDatabase::DeleteProgramL(unsigned long, long long)
	?DownloadL@CIptvDownload@@QAEXVTUid@@ABVTDesC8@@KABVTDesC16@@22@Z @ 26 NONAME ; void CIptvDownload::DownloadL(class TUid, class TDesC8 const &, unsigned long, class TDesC16 const &, class TDesC16 const &, class TDesC16 const &)
	?EndTime@CIptvEpgProgramWithSchedule@@QBE?AVTTime@@XZ @ 27 NONAME ; class TTime CIptvEpgProgramWithSchedule::EndTime(void) const
	?GetChannelId@CIptvEpgSchedule@@QAE_JXZ @ 28 NONAME ; long long CIptvEpgSchedule::GetChannelId(void)
	?GetChannelL@CIptvEpgDatabase@@QAEPAVCIptvEpgChannel@@H_J@Z @ 29 NONAME ; class CIptvEpgChannel * CIptvEpgDatabase::GetChannelL(int, long long)
	?GetChannelsL@CIptvEpgDatabase@@QAEXKPAV?$RPointerArray@VCIptvEpgChannel@@@@@Z @ 30 NONAME ; void CIptvEpgDatabase::GetChannelsL(unsigned long, class RPointerArray<class CIptvEpgChannel> *)
	?GetDescription@CIptvEpgSchedule@@QAE?AVTPtrC16@@XZ @ 31 NONAME ; class TPtrC16 CIptvEpgSchedule::GetDescription(void)
	?GetEndTime@CIptvEpgSchedule@@QAE?AVTTime@@XZ @ 32 NONAME ; class TTime CIptvEpgSchedule::GetEndTime(void)
	?GetExtendedInterface@CIptvContentHandlerBase@@UAEPAXJ@Z @ 33 NONAME ; void * CIptvContentHandlerBase::GetExtendedInterface(long)
	?GetGenre@CIptvEpgSchedule@@QAE?AVTPtrC16@@XZ @ 34 NONAME ; class TPtrC16 CIptvEpgSchedule::GetGenre(void)
	?GetLanguage@CIptvEpgSchedule@@QAE?AVTPtrC16@@XZ @ 35 NONAME ; class TPtrC16 CIptvEpgSchedule::GetLanguage(void)
	?GetLastModifiedDataL@CIptvEpgDatabase@@QAEXKAAVTDes16@@0@Z @ 36 NONAME ; void CIptvEpgDatabase::GetLastModifiedDataL(unsigned long, class TDes16 &, class TDes16 &)
	?GetLatestScheduleTimeL@CIptvEpgDatabase@@QAE?AVTTime@@K@Z @ 37 NONAME ; class TTime CIptvEpgDatabase::GetLatestScheduleTimeL(unsigned long)
	?GetName@CIptvEpgSchedule@@QAE?AVTPtrC16@@XZ @ 38 NONAME ; class TPtrC16 CIptvEpgSchedule::GetName(void)
	?GetNextProgramL@CIptvEpgDatabase@@QAEPAVCIptvEpgSchedule@@K_JABVTTime@@@Z @ 39 NONAME ; class CIptvEpgSchedule * CIptvEpgDatabase::GetNextProgramL(unsigned long, long long, class TTime const &)
	?GetParentalRating@CIptvEpgSchedule@@QAE?AVTPtrC16@@XZ @ 40 NONAME ; class TPtrC16 CIptvEpgSchedule::GetParentalRating(void)
	?GetProgramByTimeL@CIptvEpgDatabase@@QAEPAVCIptvEpgSchedule@@K_JABVTTime@@@Z @ 41 NONAME ; class CIptvEpgSchedule * CIptvEpgDatabase::GetProgramByTimeL(unsigned long, long long, class TTime const &)
	?GetProgramId@CIptvEpgSchedule@@QAE_JXZ @ 42 NONAME ; long long CIptvEpgSchedule::GetProgramId(void)
	?GetProgramL@CIptvEpgDatabase@@QAEPAVCIptvEpgSchedule@@K_J0@Z @ 43 NONAME ; class CIptvEpgSchedule * CIptvEpgDatabase::GetProgramL(unsigned long, long long, long long)
	?GetProgramsByChannelIdL@CIptvEpgDatabase@@QAEXK_JPAV?$RPointerArray@VCIptvEpgProgram@@@@@Z @ 44 NONAME ; void CIptvEpgDatabase::GetProgramsByChannelIdL(unsigned long, long long, class RPointerArray<class CIptvEpgProgram> *)
	?GetSDP@CIptvEpgSchedule@@QAE?AVTPtrC16@@XZ @ 45 NONAME ; class TPtrC16 CIptvEpgSchedule::GetSDP(void)
	?GetSchedulesByChannelAndDayL@CIptvEpgDatabase@@QAEXK_JABVTTime@@PAV?$RPointerArray@VCIptvEpgSchedule@@@@@Z @ 46 NONAME ; void CIptvEpgDatabase::GetSchedulesByChannelAndDayL(unsigned long, long long, class TTime const &, class RPointerArray<class CIptvEpgSchedule> *)
	?GetSchedulesByChannelIdL@CIptvEpgDatabase@@QAEXK_JPAV?$RPointerArray@VCIptvEpgSchedule@@@@@Z @ 47 NONAME ; void CIptvEpgDatabase::GetSchedulesByChannelIdL(unsigned long, long long, class RPointerArray<class CIptvEpgSchedule> *)
	?GetSchedulesByProgIdL@CIptvEpgDatabase@@QAEXK_J0PAV?$RPointerArray@VCIptvEpgSchedule@@@@@Z @ 48 NONAME ; void CIptvEpgDatabase::GetSchedulesByProgIdL(unsigned long, long long, long long, class RPointerArray<class CIptvEpgSchedule> *)
	?GetSchedulesByServiceIdL@CIptvEpgDatabase@@QAEXKPAV?$RPointerArray@VCIptvEpgScheduleSearch@@@@@Z @ 49 NONAME ; void CIptvEpgDatabase::GetSchedulesByServiceIdL(unsigned long, class RPointerArray<class CIptvEpgScheduleSearch> *)
	?GetServiceId@CIptvEpgLatestEpgAvailable@@QBEKXZ @ 50 NONAME ; unsigned long CIptvEpgLatestEpgAvailable::GetServiceId(void) const
	?GetServiceId@CIptvEpgSchedule@@QAEKXZ @ 51 NONAME ; unsigned long CIptvEpgSchedule::GetServiceId(void)
	?GetStartTime@CIptvEpgLatestEpgAvailable@@QBE?AVTTime@@XZ @ 52 NONAME ; class TTime CIptvEpgLatestEpgAvailable::GetStartTime(void) const
	?GetStartTime@CIptvEpgSchedule@@QAE?AVTTime@@XZ @ 53 NONAME ; class TTime CIptvEpgSchedule::GetStartTime(void)
	?GetURI@CIptvEpgSchedule@@QAE?AVTPtrC16@@XZ @ 54 NONAME ; class TPtrC16 CIptvEpgSchedule::GetURI(void)
	?InsertOrUpdateChannelL@CIptvEpgDatabase@@QAEXABVCIptvEpgChannel@@AAK@Z @ 55 NONAME ; void CIptvEpgDatabase::InsertOrUpdateChannelL(class CIptvEpgChannel const &, unsigned long &)
	?InsertOrUpdateLatestEpgAvailableL@CIptvEpgDatabase@@QAEXAAVCIptvEpgLatestEpgAvailable@@@Z @ 56 NONAME ; void CIptvEpgDatabase::InsertOrUpdateLatestEpgAvailableL(class CIptvEpgLatestEpgAvailable &)
	?InsertOrUpdateProgramL@CIptvEpgDatabase@@QAEXABVCIptvEpgProgram@@AAK@Z @ 57 NONAME ; void CIptvEpgDatabase::InsertOrUpdateProgramL(class CIptvEpgProgram const &, unsigned long &)
	?InsertOrUpdateScheduleL@CIptvEpgDatabase@@QAEXABVCIptvEpgSchedule@@@Z @ 58 NONAME ; void CIptvEpgDatabase::InsertOrUpdateScheduleL(class CIptvEpgSchedule const &)
	?LinearOrderOfSchedulesByName@CIptvEpgScheduleSearch@@SAHABV1@0@Z @ 59 NONAME ; int CIptvEpgScheduleSearch::LinearOrderOfSchedulesByName(class CIptvEpgScheduleSearch const &, class CIptvEpgScheduleSearch const &)
	?LoadIconL@CIptvLiveUIImageHandler@@SAXPAVCAknIconArray@@HHABVTSize@@ABVTDesC16@@H@Z @ 60 NONAME ; void CIptvLiveUIImageHandler::LoadIconL(class CAknIconArray *, int, int, class TSize const &, class TDesC16 const &, int)
	?LoadImageL@CIptvLiveUIImageHandler@@QAEXABVTDesC16@@@Z @ 61 NONAME ; void CIptvLiveUIImageHandler::LoadImageL(class TDesC16 const &)
	?NewL@CIptvDownload@@SAPAV1@PAVMIptvDownloadObserver@@@Z @ 62 NONAME ; class CIptvDownload * CIptvDownload::NewL(class MIptvDownloadObserver *)
	?NewL@CIptvEpgChannel@@SAPAV1@XZ @ 63 NONAME ; class CIptvEpgChannel * CIptvEpgChannel::NewL(void)
	?NewL@CIptvEpgDatabase@@SAPAV1@ABV?$TBuf@$0BAA@@@@Z @ 64 NONAME ; class CIptvEpgDatabase * CIptvEpgDatabase::NewL(class TBuf<256> const &)
	?NewL@CIptvEpgFileSwapper@@SAPAV1@ABV?$TBuf@$0BAA@@@0AAVMIptvEpgFileSwapObserver@@@Z @ 65 NONAME ; class CIptvEpgFileSwapper * CIptvEpgFileSwapper::NewL(class TBuf<256> const &, class TBuf<256> const &, class MIptvEpgFileSwapObserver &)
	?NewL@CIptvEpgLatestEpgAvailable@@SAPAV1@XZ @ 66 NONAME ; class CIptvEpgLatestEpgAvailable * CIptvEpgLatestEpgAvailable::NewL(void)
	?NewL@CIptvEpgProgram@@SAPAV1@XZ @ 67 NONAME ; class CIptvEpgProgram * CIptvEpgProgram::NewL(void)
	?NewL@CIptvEpgProgramWithSchedule@@SAPAV1@XZ @ 68 NONAME ; class CIptvEpgProgramWithSchedule * CIptvEpgProgramWithSchedule::NewL(void)
	?NewL@CIptvEpgSchedule@@SAPAV1@XZ @ 69 NONAME ; class CIptvEpgSchedule * CIptvEpgSchedule::NewL(void)
	?NewL@CIptvEpgScheduleSearch@@SAPAV1@XZ @ 70 NONAME ; class CIptvEpgScheduleSearch * CIptvEpgScheduleSearch::NewL(void)
	?NewL@CIptvLiveUIImageHandler@@SAPAV1@AAVMIptvLiveUIImageObserver@@@Z @ 71 NONAME ; class CIptvLiveUIImageHandler * CIptvLiveUIImageHandler::NewL(class MIptvLiveUIImageObserver &)
	?NewL@CIptvLiveUIObjectTimer@@SAPAV1@PAVMIptvLiveUITimerObserver@@@Z @ 72 NONAME ; class CIptvLiveUIObjectTimer * CIptvLiveUIObjectTimer::NewL(class MIptvLiveUITimerObserver *)
	?NewL@CIptvSettingsDatabase@@SAPAV1@ABV?$TBuf@$0BAA@@@@Z @ 73 NONAME ; class CIptvSettingsDatabase * CIptvSettingsDatabase::NewL(class TBuf<256> const &)
	?OnContentL@CIptvContentHandlerBase@@UAEXABVTDesC8@@H@Z @ 74 NONAME ; void CIptvContentHandlerBase::OnContentL(class TDesC8 const &, int)
	?OnEndDocumentL@CIptvContentHandlerBase@@UAEXH@Z @ 75 NONAME ; void CIptvContentHandlerBase::OnEndDocumentL(int)
	?OnEndElementL@CIptvContentHandlerBase@@UAEXABVRTagInfo@Xml@@H@Z @ 76 NONAME ; void CIptvContentHandlerBase::OnEndElementL(class Xml::RTagInfo const &, int)
	?OnEndPrefixMappingL@CIptvContentHandlerBase@@UAEXABVRString@@H@Z @ 77 NONAME ; void CIptvContentHandlerBase::OnEndPrefixMappingL(class RString const &, int)
	?OnError@CIptvContentHandlerBase@@UAEXH@Z @ 78 NONAME ; void CIptvContentHandlerBase::OnError(int)
	?OnIgnorableWhiteSpaceL@CIptvContentHandlerBase@@UAEXABVTDesC8@@H@Z @ 79 NONAME ; void CIptvContentHandlerBase::OnIgnorableWhiteSpaceL(class TDesC8 const &, int)
	?OnProcessingInstructionL@CIptvContentHandlerBase@@UAEXABVTDesC8@@0H@Z @ 80 NONAME ; void CIptvContentHandlerBase::OnProcessingInstructionL(class TDesC8 const &, class TDesC8 const &, int)
	?OnSkippedEntityL@CIptvContentHandlerBase@@UAEXABVRString@@H@Z @ 81 NONAME ; void CIptvContentHandlerBase::OnSkippedEntityL(class RString const &, int)
	?OnStartDocumentL@CIptvContentHandlerBase@@UAEXABVRDocumentParameters@Xml@@H@Z @ 82 NONAME ; void CIptvContentHandlerBase::OnStartDocumentL(class Xml::RDocumentParameters const &, int)
	?OnStartElementL@CIptvContentHandlerBase@@UAEXABVRTagInfo@Xml@@ABV?$RArray@VRAttribute@Xml@@@@H@Z @ 83 NONAME ; void CIptvContentHandlerBase::OnStartElementL(class Xml::RTagInfo const &, class RArray<class Xml::RAttribute> const &, int)
	?OnStartPrefixMappingL@CIptvContentHandlerBase@@UAEXABVRString@@0H@Z @ 84 NONAME ; void CIptvContentHandlerBase::OnStartPrefixMappingL(class RString const &, class RString const &, int)
	?ProgramDescription@CIptvEpgProgram@@QBEAAVTDesC16@@XZ @ 85 NONAME ; class TDesC16 & CIptvEpgProgram::ProgramDescription(void) const
	?ProgramGenre@CIptvEpgProgram@@QBEAAVTDesC16@@XZ @ 86 NONAME ; class TDesC16 & CIptvEpgProgram::ProgramGenre(void) const
	?ProgramId@CIptvEpgProgram@@QBE_JXZ @ 87 NONAME ; long long CIptvEpgProgram::ProgramId(void) const
	?ProgramLanguage@CIptvEpgProgram@@QBEAAVTDesC16@@XZ @ 88 NONAME ; class TDesC16 & CIptvEpgProgram::ProgramLanguage(void) const
	?ProgramName@CIptvEpgProgram@@QBEAAVTDesC16@@XZ @ 89 NONAME ; class TDesC16 & CIptvEpgProgram::ProgramName(void) const
	?ProgramParentalRating@CIptvEpgProgram@@QBEAAVTDesC16@@XZ @ 90 NONAME ; class TDesC16 & CIptvEpgProgram::ProgramParentalRating(void) const
	?ProgramSDP@CIptvEpgProgram@@QBEAAVTDesC16@@XZ @ 91 NONAME ; class TDesC16 & CIptvEpgProgram::ProgramSDP(void) const
	?ProgramURI@CIptvEpgProgram@@QBEAAVTDesC16@@XZ @ 92 NONAME ; class TDesC16 & CIptvEpgProgram::ProgramURI(void) const
	?ReadLastUsageByServiceL@CIptvSettingsDatabase@@QAEXKAAVTIptvLiveUISettings@@@Z @ 93 NONAME ; void CIptvSettingsDatabase::ReadLastUsageByServiceL(unsigned long, class TIptvLiveUISettings &)
	?ReadLastUsageL@CIptvSettingsDatabase@@QAEXAAVTIptvLiveUISettings@@@Z @ 94 NONAME ; void CIptvSettingsDatabase::ReadLastUsageL(class TIptvLiveUISettings &)
	?ReadSettingsL@CIptvSettingsDatabase@@QAEXAAVTIptvLiveUISettings@@@Z @ 95 NONAME ; void CIptvSettingsDatabase::ReadSettingsL(class TIptvLiveUISettings &)
	?SaveLastUsageL@CIptvSettingsDatabase@@QAEXABVTIptvLiveUISettings@@@Z @ 96 NONAME ; void CIptvSettingsDatabase::SaveLastUsageL(class TIptvLiveUISettings const &)
	?SaveSettingsL@CIptvSettingsDatabase@@QAEXABVTIptvLiveUISettings@@@Z @ 97 NONAME ; void CIptvSettingsDatabase::SaveSettingsL(class TIptvLiveUISettings const &)
	?Schedule@CIptvEpgProgramWithSchedule@@QAEAAVCIptvEpgSchedule@@XZ @ 98 NONAME ; class CIptvEpgSchedule & CIptvEpgProgramWithSchedule::Schedule(void)
	?ServiceId@CIptvEpgChannel@@QBEKXZ @ 99 NONAME ; unsigned long CIptvEpgChannel::ServiceId(void) const
	?ServiceId@CIptvEpgProgram@@QBEKXZ @ 100 NONAME ; unsigned long CIptvEpgProgram::ServiceId(void) const
	?SetChannelDescription@CIptvEpgChannel@@QAEXPAVHBufC16@@@Z @ 101 NONAME ; void CIptvEpgChannel::SetChannelDescription(class HBufC16 *)
	?SetChannelIconL@CIptvEpgChannel@@QAEXABVCFbsBitmap@@@Z @ 102 NONAME ; void CIptvEpgChannel::SetChannelIconL(class CFbsBitmap const &)
	?SetChannelId@CIptvEpgChannel@@QAEX_J@Z @ 103 NONAME ; void CIptvEpgChannel::SetChannelId(long long)
	?SetChannelId@CIptvEpgProgram@@QAEX_J@Z @ 104 NONAME ; void CIptvEpgProgram::SetChannelId(long long)
	?SetChannelId@CIptvEpgSchedule@@QAEXAB_J@Z @ 105 NONAME ; void CIptvEpgSchedule::SetChannelId(long long const &)
	?SetChannelLogoPath@CIptvEpgChannel@@QAEXPAVHBufC16@@@Z @ 106 NONAME ; void CIptvEpgChannel::SetChannelLogoPath(class HBufC16 *)
	?SetChannelName@CIptvEpgChannel@@QAEXPAVHBufC16@@@Z @ 107 NONAME ; void CIptvEpgChannel::SetChannelName(class HBufC16 *)
	?SetChannelOrder@CIptvEpgChannel@@QAEXK@Z @ 108 NONAME ; void CIptvEpgChannel::SetChannelOrder(unsigned long)
	?SetChannelSDP@CIptvEpgChannel@@QAEXPAVHBufC16@@@Z @ 109 NONAME ; void CIptvEpgChannel::SetChannelSDP(class HBufC16 *)
	?SetChannelURI@CIptvEpgChannel@@QAEXPAVHBufC16@@@Z @ 110 NONAME ; void CIptvEpgChannel::SetChannelURI(class HBufC16 *)
	?SetDescriptionL@CIptvEpgSchedule@@QAEXABVTDesC16@@@Z @ 111 NONAME ; void CIptvEpgSchedule::SetDescriptionL(class TDesC16 const &)
	?SetEndTime@CIptvEpgProgramWithSchedule@@QAEXABVTTime@@@Z @ 112 NONAME ; void CIptvEpgProgramWithSchedule::SetEndTime(class TTime const &)
	?SetEndTime@CIptvEpgSchedule@@QAEXABVTTime@@@Z @ 113 NONAME ; void CIptvEpgSchedule::SetEndTime(class TTime const &)
	?SetGenreL@CIptvEpgSchedule@@QAEXABVTDesC16@@@Z @ 114 NONAME ; void CIptvEpgSchedule::SetGenreL(class TDesC16 const &)
	?SetLanguageL@CIptvEpgSchedule@@QAEXABVTDesC16@@@Z @ 115 NONAME ; void CIptvEpgSchedule::SetLanguageL(class TDesC16 const &)
	?SetLastModifiedDataL@CIptvEpgDatabase@@QAEXKABVTDesC16@@0@Z @ 116 NONAME ; void CIptvEpgDatabase::SetLastModifiedDataL(unsigned long, class TDesC16 const &, class TDesC16 const &)
	?SetNameL@CIptvEpgSchedule@@QAEXABVTDesC16@@@Z @ 117 NONAME ; void CIptvEpgSchedule::SetNameL(class TDesC16 const &)
	?SetParentalRatingL@CIptvEpgSchedule@@QAEXABVTDesC16@@@Z @ 118 NONAME ; void CIptvEpgSchedule::SetParentalRatingL(class TDesC16 const &)
	?SetProgramDescription@CIptvEpgProgram@@QAEXPAVHBufC16@@@Z @ 119 NONAME ; void CIptvEpgProgram::SetProgramDescription(class HBufC16 *)
	?SetProgramGenre@CIptvEpgProgram@@QAEXPAVHBufC16@@@Z @ 120 NONAME ; void CIptvEpgProgram::SetProgramGenre(class HBufC16 *)
	?SetProgramId@CIptvEpgProgram@@QAEX_J@Z @ 121 NONAME ; void CIptvEpgProgram::SetProgramId(long long)
	?SetProgramId@CIptvEpgSchedule@@QAEXAB_J@Z @ 122 NONAME ; void CIptvEpgSchedule::SetProgramId(long long const &)
	?SetProgramLanguage@CIptvEpgProgram@@QAEXPAVHBufC16@@@Z @ 123 NONAME ; void CIptvEpgProgram::SetProgramLanguage(class HBufC16 *)
	?SetProgramName@CIptvEpgProgram@@QAEXPAVHBufC16@@@Z @ 124 NONAME ; void CIptvEpgProgram::SetProgramName(class HBufC16 *)
	?SetProgramParentalRating@CIptvEpgProgram@@QAEXPAVHBufC16@@@Z @ 125 NONAME ; void CIptvEpgProgram::SetProgramParentalRating(class HBufC16 *)
	?SetProgramSDP@CIptvEpgProgram@@QAEXPAVHBufC16@@@Z @ 126 NONAME ; void CIptvEpgProgram::SetProgramSDP(class HBufC16 *)
	?SetProgramURI@CIptvEpgProgram@@QAEXPAVHBufC16@@@Z @ 127 NONAME ; void CIptvEpgProgram::SetProgramURI(class HBufC16 *)
	?SetSDPL@CIptvEpgSchedule@@QAEXABVTDesC16@@@Z @ 128 NONAME ; void CIptvEpgSchedule::SetSDPL(class TDesC16 const &)
	?SetService@CIptvDownload@@QAEXPAVCIptvEpgService@@@Z @ 129 NONAME ; void CIptvDownload::SetService(class CIptvEpgService *)
	?SetServiceId@CIptvEpgChannel@@QAEXK@Z @ 130 NONAME ; void CIptvEpgChannel::SetServiceId(unsigned long)
	?SetServiceId@CIptvEpgLatestEpgAvailable@@QAEXABK@Z @ 131 NONAME ; void CIptvEpgLatestEpgAvailable::SetServiceId(unsigned long const &)
	?SetServiceId@CIptvEpgProgram@@QAEXK@Z @ 132 NONAME ; void CIptvEpgProgram::SetServiceId(unsigned long)
	?SetServiceId@CIptvEpgSchedule@@QAEXABK@Z @ 133 NONAME ; void CIptvEpgSchedule::SetServiceId(unsigned long const &)
	?SetStartTime@CIptvEpgLatestEpgAvailable@@QAEXABVTTime@@@Z @ 134 NONAME ; void CIptvEpgLatestEpgAvailable::SetStartTime(class TTime const &)
	?SetStartTime@CIptvEpgProgramWithSchedule@@QAEXABVTTime@@@Z @ 135 NONAME ; void CIptvEpgProgramWithSchedule::SetStartTime(class TTime const &)
	?SetStartTime@CIptvEpgSchedule@@QAEXABVTTime@@@Z @ 136 NONAME ; void CIptvEpgSchedule::SetStartTime(class TTime const &)
	?SetURIL@CIptvEpgSchedule@@QAEXABVTDesC16@@@Z @ 137 NONAME ; void CIptvEpgSchedule::SetURIL(class TDesC16 const &)
	?StartTime@CIptvEpgProgramWithSchedule@@QBE?AVTTime@@XZ @ 138 NONAME ; class TTime CIptvEpgProgramWithSchedule::StartTime(void) const
	?StartTimer@CIptvLiveUIObjectTimer@@QAEXABVTTime@@@Z @ 139 NONAME ; void CIptvLiveUIObjectTimer::StartTimer(class TTime const &)
	?SwapFilesL@CIptvEpgFileSwapper@@QAEXXZ @ 140 NONAME ; void CIptvEpgFileSwapper::SwapFilesL(void)
	?UpdateChannelIconPathL@CIptvEpgDatabase@@QAEXK_JABVTDesC16@@@Z @ 141 NONAME ; void CIptvEpgDatabase::UpdateChannelIconPathL(unsigned long, long long, class TDesC16 const &)
	?UpdateChannelOrderL@CIptvEpgDatabase@@QAEXK_JK@Z @ 142 NONAME ; void CIptvEpgDatabase::UpdateChannelOrderL(unsigned long, long long, unsigned long)
	?LoadIconL@CIptvLiveUIImageHandler@@SAXPAVCAknIconArray@@VTAknsItemID@@HHABVTSize@@ABVTDesC16@@H@Z @ 143 NONAME ; void CIptvLiveUIImageHandler::LoadIconL(class CAknIconArray *, class TAknsItemID, int, int, class TSize const &, class TDesC16 const &, int)

