EXPORTS
	?AccountMgmtUri@CVcxNsService@@QAEABVTDesC16@@XZ @ 1 NONAME ; class TDesC16 const & CVcxNsService::AccountMgmtUri(void)
	?ActiveCategory@CVcxNsUiEngine@@QAEKXZ @ 2 NONAME ; unsigned long CVcxNsUiEngine::ActiveCategory(void)
	?AddServiceL@CVcxNsServiceSettings@@QAEHABVTDesC16@@00AAVCIptvIapList@@W4TServiceType@CIptvService@@ABVTUid@@33@Z @ 3 NONAME ; int CVcxNsServiceSettings::AddServiceL(class TDesC16 const &, class TDesC16 const &, class TDesC16 const &, class CIptvIapList &, enum CIptvService::TServiceType, class TUid const &, class TUid const &, class TUid const &)
	?ContentSearchHandlerL@CVcxNsUiEngine@@QAEPAVMVcxNsContentSearchIf@@XZ @ 4 NONAME ; class MVcxNsContentSearchIf * CVcxNsUiEngine::ContentSearchHandlerL(void)
	?DecreaseReferenceCount@CVcxNsUiEngine@@QAEXXZ @ 5 NONAME ; void CVcxNsUiEngine::DecreaseReferenceCount(void)
	?DeleteServiceL@CVcxNsServiceSettings@@QAEXK@Z @ 6 NONAME ; void CVcxNsServiceSettings::DeleteServiceL(unsigned long)
	?GetAgeProfile@CVcxNsContent@@QAEGXZ @ 7 NONAME ; unsigned short CVcxNsContent::GetAgeProfile(void)
	?GetAllSelectedServicesL@CVcxNsServiceSettings@@QAEPAVCDesC8ArraySeg@@AAH@Z @ 8 NONAME ; class CDesC8ArraySeg * CVcxNsServiceSettings::GetAllSelectedServicesL(int &)
	?GetAllServicesL@CVcxNsServiceSettings@@QAEPAVCDesC8ArraySeg@@XZ @ 9 NONAME ; class CDesC8ArraySeg * CVcxNsServiceSettings::GetAllServicesL(void)
	?GetAuthor@CVcxNsContent@@QAEABVTDesC16@@XZ @ 10 NONAME ; class TDesC16 const & CVcxNsContent::GetAuthor(void)
	?GetAvailableIapL@CVcxNsUiEngine@@QAEKXZ @ 11 NONAME ; unsigned long CVcxNsUiEngine::GetAvailableIapL(void)
	?GetBrowserUrl@CVcxNsContent@@QAEABVTDesC16@@XZ @ 12 NONAME ; class TDesC16 const & CVcxNsContent::GetBrowserUrl(void)
	?GetCategoryId@CVcxNsCategory@@QAEKXZ @ 13 NONAME ; unsigned long CVcxNsCategory::GetCategoryId(void)
	?GetCategoryProviderL@CVcxNsUiEngine@@QAEPAVMVcxNsCategoryProviderIf@@XZ @ 14 NONAME ; class MVcxNsCategoryProviderIf * CVcxNsUiEngine::GetCategoryProviderL(void)
	?GetContentId@CVcxNsContent@@QAEKXZ @ 15 NONAME ; unsigned long CVcxNsContent::GetContentId(void)
	?GetContentProviderL@CVcxNsUiEngine@@QAEPAVMVcxNsContentProviderIf@@XZ @ 16 NONAME ; class MVcxNsContentProviderIf * CVcxNsUiEngine::GetContentProviderL(void)
	?GetContentTypes@CVcxNsContent@@QAEKXZ @ 17 NONAME ; unsigned long CVcxNsContent::GetContentTypes(void)
	?GetCopyright@CVcxNsContent@@QAEABVTDesC16@@XZ @ 18 NONAME ; class TDesC16 const & CVcxNsContent::GetCopyright(void)
	?GetDesc@CVcxNsService@@QAEABVTDesC16@@XZ @ 19 NONAME ; class TDesC16 const & CVcxNsService::GetDesc(void)
	?GetDescription@CVcxNsContent@@QAEABVTDesC16@@XZ @ 20 NONAME ; class TDesC16 const & CVcxNsContent::GetDescription(void)
	?GetDlProgress@CVcxNsContent@@QAECXZ @ 21 NONAME ; signed char CVcxNsContent::GetDlProgress(void)
	?GetDlStatus@CVcxNsContent@@QAE?AW4TVcxContentDlStatus@1@XZ @ 22 NONAME ; enum CVcxNsContent::TVcxContentDlStatus CVcxNsContent::GetDlStatus(void)
	?GetIap@CVcxNsService@@QAEKXZ @ 23 NONAME ; unsigned long CVcxNsService::GetIap(void)
	?GetIapListForNewServiceL@CVcxNsServiceSettings@@QAEHAAVCIptvIapList@@@Z @ 24 NONAME ; int CVcxNsServiceSettings::GetIapListForNewServiceL(class CIptvIapList &)
	?GetIconPath@CVcxNsContent@@QAEABVTDesC16@@XZ @ 25 NONAME ; class TDesC16 const & CVcxNsContent::GetIconPath(void)
	?GetIconPath@CVcxNsService@@QAEABVTDesC16@@XZ @ 26 NONAME ; class TDesC16 const & CVcxNsService::GetIconPath(void)
	?GetIsReadOnlyIap@CVcxNsService@@QAEHXZ @ 27 NONAME ; int CVcxNsService::GetIsReadOnlyIap(void)
	?GetLanguage@CVcxNsContent@@QAEABVTDesC16@@XZ @ 28 NONAME ; class TDesC16 const & CVcxNsContent::GetLanguage(void)
	?GetLength@CVcxNsContent@@QAEKXZ @ 29 NONAME ; unsigned long CVcxNsContent::GetLength(void)
	?GetName@CVcxNsCategory@@QAEABVTDesC16@@XZ @ 30 NONAME ; class TDesC16 const & CVcxNsCategory::GetName(void)
	?GetName@CVcxNsContent@@QAEABVTDesC16@@XZ @ 31 NONAME ; class TDesC16 const & CVcxNsContent::GetName(void)
	?GetName@CVcxNsService@@QAEABVTDesC16@@XZ @ 32 NONAME ; class TDesC16 const & CVcxNsService::GetName(void)
	?GetPassword@CVcxNsService@@QAEABVTDesC16@@XZ @ 33 NONAME ; class TDesC16 const & CVcxNsService::GetPassword(void)
	?GetScheduledDownloadSettingsL@CVcxNsServiceSettings@@QAEHKAAKAAW4TIptvVodScheduleConnectionCondition@@0@Z @ 34 NONAME ; int CVcxNsServiceSettings::GetScheduledDownloadSettingsL(unsigned long, unsigned long &, enum TIptvVodScheduleConnectionCondition &, unsigned long &)
	?GetServiceId@CVcxNsContent@@QAEKXZ @ 35 NONAME ; unsigned long CVcxNsContent::GetServiceId(void)
	?GetServiceId@CVcxNsService@@QAEKXZ @ 36 NONAME ; unsigned long CVcxNsService::GetServiceId(void)
	?GetServiceL@CVcxNsServiceSettings@@QAEHKAAVCIptvService@@@Z @ 37 NONAME ; int CVcxNsServiceSettings::GetServiceL(unsigned long, class CIptvService &)
	?GetServiceProviderL@CVcxNsUiEngine@@QAEPAVMVcxNsServiceProviderIf@@XZ @ 38 NONAME ; class MVcxNsServiceProviderIf * CVcxNsUiEngine::GetServiceProviderL(void)
	?GetServicesByTypeL@CVcxNsServiceSettings@@QAEPAVCDesC8ArraySeg@@W4TServiceType@CIptvService@@@Z @ 39 NONAME ; class CDesC8ArraySeg * CVcxNsServiceSettings::GetServicesByTypeL(enum CIptvService::TServiceType)
	?GetSize@CVcxNsContent@@QAEKXZ @ 40 NONAME ; unsigned long CVcxNsContent::GetSize(void)
	?GetUpdateStatus@CVcxNsService@@QAE?AW4TServiceUpdateStatus@1@XZ @ 41 NONAME ; enum CVcxNsService::TServiceUpdateStatus CVcxNsService::GetUpdateStatus(void)
	?GetUpdateTime@CVcxNsService@@QAE?AVTTime@@XZ @ 42 NONAME ; class TTime CVcxNsService::GetUpdateTime(void)
	?GetUrl@CVcxNsContent@@QAEABVTDesC16@@W4TVcxNsContentAccessType@1@@Z @ 43 NONAME ; class TDesC16 const & CVcxNsContent::GetUrl(enum CVcxNsContent::TVcxNsContentAccessType)
	?GetUserName@CVcxNsService@@QAEABVTDesC16@@XZ @ 44 NONAME ; class TDesC16 const & CVcxNsService::GetUserName(void)
	?GetVideoCount@CVcxNsCategory@@QAEHXZ @ 45 NONAME ; int CVcxNsCategory::GetVideoCount(void)
	?HandleBack@CVcxNsUiEngine@@QAEHXZ @ 46 NONAME ; int CVcxNsUiEngine::HandleBack(void)
	?InstanceL@CVcxNsUiEngine@@SAPAV1@XZ @ 47 NONAME ; class CVcxNsUiEngine * CVcxNsUiEngine::InstanceL(void)
	?NewL@CVcxNsServiceSettings@@SAPAV1@XZ @ 48 NONAME ; class CVcxNsServiceSettings * CVcxNsServiceSettings::NewL(void)
	?PlayLastWatchedL@CVcxNsUiEngine@@QAEXXZ @ 49 NONAME ; void CVcxNsUiEngine::PlayLastWatchedL(void)
	?PlayStreamL@CVcxNsUiEngine@@QAEXPAVCVcxNsContent@@@Z @ 50 NONAME ; void CVcxNsUiEngine::PlayStreamL(class CVcxNsContent *)
	?PlayVideoL@CVcxNsUiEngine@@QAEXPAVCVcxNsContent@@@Z @ 51 NONAME ; void CVcxNsUiEngine::PlayVideoL(class CVcxNsContent *)
	?ProgressHandlerL@CVcxNsUiEngine@@QAEPAVMVcxNsUpdateProgressIf@@XZ @ 52 NONAME ; class MVcxNsUpdateProgressIf * CVcxNsUiEngine::ProgressHandlerL(void)
	?ResetStates@CVcxNsUiEngine@@QAEXXZ @ 53 NONAME ; void CVcxNsUiEngine::ResetStates(void)
	?SetPasswordL@CVcxNsContent@@QAEXABVTDesC16@@@Z @ 54 NONAME ; void CVcxNsContent::SetPasswordL(class TDesC16 const &)
	?SetScheduledDownloadSettingsL@CVcxNsServiceSettings@@QAEHKKW4TIptvVodScheduleConnectionCondition@@K@Z @ 55 NONAME ; int CVcxNsServiceSettings::SetScheduledDownloadSettingsL(unsigned long, unsigned long, enum TIptvVodScheduleConnectionCondition, unsigned long)
	?SetUsernameL@CVcxNsContent@@QAEXABVTDesC16@@@Z @ 56 NONAME ; void CVcxNsContent::SetUsernameL(class TDesC16 const &)
	?SetVcAppState@CVcxNsUiEngine@@QAEXW4TVcxNsAppState@@@Z @ 57 NONAME ; void CVcxNsUiEngine::SetVcAppState(enum TVcxNsAppState)
	?Type@CVcxNsService@@QBE?AW4TVcxNsVodServiceType@1@XZ @ 58 NONAME ; enum CVcxNsService::TVcxNsVodServiceType CVcxNsService::Type(void) const
	?UpdateServiceL@CVcxNsServiceSettings@@QAEXAAVCIptvService@@@Z @ 59 NONAME ; void CVcxNsServiceSettings::UpdateServiceL(class CIptvService &)
	?VcAppState@CVcxNsUiEngine@@QAE?AW4TVcxNsAppState@@XZ @ 60 NONAME ; enum TVcxNsAppState CVcxNsUiEngine::VcAppState(void)
	?VideoPlaybackStartingL@CVcxNsUiEngine@@QAEXPAVCVcxNsContent@@@Z @ 61 NONAME ; void CVcxNsUiEngine::VideoPlaybackStartingL(class CVcxNsContent *)
	?GetAvailableWapIdL@CVcxNsUiEngine@@QAEKXZ @ 62 NONAME ; unsigned long CVcxNsUiEngine::GetAvailableWapIdL(void)

