EXPORTS
	_ZN13CIptvDownload10SetServiceEP15CIptvEpgService @ 1 NONAME
	_ZN13CIptvDownload4NewLEP21MIptvDownloadObserver @ 2 NONAME
	_ZN13CIptvDownload9DownloadLE4TUidRK6TDesC8mRK7TDesC16S6_S6_ @ 3 NONAME
	_ZN15CIptvEpgChannel11ChannelIconEv @ 4 NONAME
	_ZN15CIptvEpgChannel12SetChannelIdEx @ 5 NONAME
	_ZN15CIptvEpgChannel12SetServiceIdEm @ 6 NONAME
	_ZN15CIptvEpgChannel13SetChannelSDPEP7HBufC16 @ 7 NONAME
	_ZN15CIptvEpgChannel13SetChannelURIEP7HBufC16 @ 8 NONAME
	_ZN15CIptvEpgChannel14SetChannelNameEP7HBufC16 @ 9 NONAME
	_ZN15CIptvEpgChannel15SetChannelIconLERK10CFbsBitmap @ 10 NONAME
	_ZN15CIptvEpgChannel15SetChannelOrderEm @ 11 NONAME
	_ZN15CIptvEpgChannel18SetChannelLogoPathEP7HBufC16 @ 12 NONAME
	_ZN15CIptvEpgChannel21SetChannelDescriptionEP7HBufC16 @ 13 NONAME
	_ZN15CIptvEpgChannel4NewLEv @ 14 NONAME
	_ZN15CIptvEpgProgram12SetChannelIdEx @ 15 NONAME
	_ZN15CIptvEpgProgram12SetProgramIdEx @ 16 NONAME
	_ZN15CIptvEpgProgram12SetServiceIdEm @ 17 NONAME
	_ZN15CIptvEpgProgram13SetProgramSDPEP7HBufC16 @ 18 NONAME
	_ZN15CIptvEpgProgram13SetProgramURIEP7HBufC16 @ 19 NONAME
	_ZN15CIptvEpgProgram14SetProgramNameEP7HBufC16 @ 20 NONAME
	_ZN15CIptvEpgProgram15SetProgramGenreEP7HBufC16 @ 21 NONAME
	_ZN15CIptvEpgProgram18SetProgramLanguageEP7HBufC16 @ 22 NONAME
	_ZN15CIptvEpgProgram21SetProgramDescriptionEP7HBufC16 @ 23 NONAME
	_ZN15CIptvEpgProgram24SetProgramParentalRatingEP7HBufC16 @ 24 NONAME
	_ZN15CIptvEpgProgram4NewLEv @ 25 NONAME
	_ZN16CIptvEpgDatabase11AddChannelLERK15CIptvEpgChannelRm @ 26 NONAME
	_ZN16CIptvEpgDatabase11AddProgramLERK15CIptvEpgProgramRm @ 27 NONAME
	_ZN16CIptvEpgDatabase11GetChannelLEix @ 28 NONAME
	_ZN16CIptvEpgDatabase11GetProgramLEmxx @ 29 NONAME
	_ZN16CIptvEpgDatabase12AddProgramsLERK13RPointerArrayI15CIptvEpgProgramE @ 30 NONAME
	_ZN16CIptvEpgDatabase12AddScheduleLERK16CIptvEpgSchedule @ 31 NONAME
	_ZN16CIptvEpgDatabase12GetChannelsLEmP13RPointerArrayI15CIptvEpgChannelE @ 32 NONAME
	_ZN16CIptvEpgDatabase13AddSchedulesLERK13RPointerArrayI16CIptvEpgScheduleE @ 33 NONAME
	_ZN16CIptvEpgDatabase14DeleteChannelLEmx @ 34 NONAME
	_ZN16CIptvEpgDatabase14DeleteProgramLEmx @ 35 NONAME
	_ZN16CIptvEpgDatabase15GetNextProgramLEmxRK5TTime @ 36 NONAME
	_ZN16CIptvEpgDatabase17GetProgramByTimeLEmxRK5TTime @ 37 NONAME
	_ZN16CIptvEpgDatabase19UpdateChannelOrderLEmxm @ 38 NONAME
	_ZN16CIptvEpgDatabase20ClearServiceEPGDataLEm @ 39 NONAME
	_ZN16CIptvEpgDatabase20GetLastModifiedDataLEmR6TDes16S1_ @ 40 NONAME
	_ZN16CIptvEpgDatabase20SetLastModifiedDataLEmRK7TDesC16S2_ @ 41 NONAME
	_ZN16CIptvEpgDatabase21GetSchedulesByProgIdLEmxxP13RPointerArrayI16CIptvEpgScheduleE @ 42 NONAME
	_ZN16CIptvEpgDatabase22GetLatestScheduleTimeLEm @ 43 NONAME
	_ZN16CIptvEpgDatabase22InsertOrUpdateChannelLERK15CIptvEpgChannelRm @ 44 NONAME
	_ZN16CIptvEpgDatabase22InsertOrUpdateProgramLERK15CIptvEpgProgramRm @ 45 NONAME
	_ZN16CIptvEpgDatabase22UpdateChannelIconPathLEmxRK7TDesC16 @ 46 NONAME
	_ZN16CIptvEpgDatabase23AddProgramWithScheduleLER27CIptvEpgProgramWithScheduleRm @ 47 NONAME
	_ZN16CIptvEpgDatabase23GetProgramsByChannelIdLEmxP13RPointerArrayI15CIptvEpgProgramE @ 48 NONAME
	_ZN16CIptvEpgDatabase23InsertOrUpdateScheduleLERK16CIptvEpgSchedule @ 49 NONAME
	_ZN16CIptvEpgDatabase24GetSchedulesByChannelIdLEmxP13RPointerArrayI16CIptvEpgScheduleE @ 50 NONAME
	_ZN16CIptvEpgDatabase24GetSchedulesByServiceIdLEmP13RPointerArrayI22CIptvEpgScheduleSearchE @ 51 NONAME
	_ZN16CIptvEpgDatabase25AddProgramsWithSchedulesLERK13RPointerArrayI27CIptvEpgProgramWithScheduleE @ 52 NONAME
	_ZN16CIptvEpgDatabase28GetSchedulesByChannelAndDayLEmxRK5TTimeP13RPointerArrayI16CIptvEpgScheduleE @ 53 NONAME
	_ZN16CIptvEpgDatabase33InsertOrUpdateLatestEpgAvailableLER26CIptvEpgLatestEpgAvailable @ 54 NONAME
	_ZN16CIptvEpgDatabase4NewLERK4TBufILi256EE @ 55 NONAME
	_ZN16CIptvEpgSchedule10GetEndTimeEv @ 56 NONAME
	_ZN16CIptvEpgSchedule10SetEndTimeERK5TTime @ 57 NONAME
	_ZN16CIptvEpgSchedule11GetLanguageEv @ 58 NONAME
	_ZN16CIptvEpgSchedule12GetChannelIdEv @ 59 NONAME
	_ZN16CIptvEpgSchedule12GetProgramIdEv @ 60 NONAME
	_ZN16CIptvEpgSchedule12GetServiceIdEv @ 61 NONAME
	_ZN16CIptvEpgSchedule12GetStartTimeEv @ 62 NONAME
	_ZN16CIptvEpgSchedule12SetChannelIdERKx @ 63 NONAME
	_ZN16CIptvEpgSchedule12SetLanguageLERK7TDesC16 @ 64 NONAME
	_ZN16CIptvEpgSchedule12SetProgramIdERKx @ 65 NONAME
	_ZN16CIptvEpgSchedule12SetServiceIdERKm @ 66 NONAME
	_ZN16CIptvEpgSchedule12SetStartTimeERK5TTime @ 67 NONAME
	_ZN16CIptvEpgSchedule14GetDescriptionEv @ 68 NONAME
	_ZN16CIptvEpgSchedule15SetDescriptionLERK7TDesC16 @ 69 NONAME
	_ZN16CIptvEpgSchedule17GetParentalRatingEv @ 70 NONAME
	_ZN16CIptvEpgSchedule18SetParentalRatingLERK7TDesC16 @ 71 NONAME
	_ZN16CIptvEpgSchedule4NewLEv @ 72 NONAME
	_ZN16CIptvEpgSchedule6GetSDPEv @ 73 NONAME
	_ZN16CIptvEpgSchedule6GetURIEv @ 74 NONAME
	_ZN16CIptvEpgSchedule7GetNameEv @ 75 NONAME
	_ZN16CIptvEpgSchedule7SetSDPLERK7TDesC16 @ 76 NONAME
	_ZN16CIptvEpgSchedule7SetURILERK7TDesC16 @ 77 NONAME
	_ZN16CIptvEpgSchedule8GetGenreEv @ 78 NONAME
	_ZN16CIptvEpgSchedule8SetNameLERK7TDesC16 @ 79 NONAME
	_ZN16CIptvEpgSchedule9SetGenreLERK7TDesC16 @ 80 NONAME
	_ZN19CIptvEpgFileSwapper10SwapFilesLEv @ 81 NONAME
	_ZN19CIptvEpgFileSwapper4NewLERK4TBufILi256EES3_R24MIptvEpgFileSwapObserver @ 82 NONAME
	_ZN21CIptvSettingsDatabase13ReadSettingsLER19TIptvLiveUISettings @ 83 NONAME
	_ZN21CIptvSettingsDatabase13SaveSettingsLERK19TIptvLiveUISettings @ 84 NONAME
	_ZN21CIptvSettingsDatabase14ReadLastUsageLER19TIptvLiveUISettings @ 85 NONAME
	_ZN21CIptvSettingsDatabase14SaveLastUsageLERK19TIptvLiveUISettings @ 86 NONAME
	_ZN21CIptvSettingsDatabase23ReadLastUsageByServiceLEmR19TIptvLiveUISettings @ 87 NONAME
	_ZN21CIptvSettingsDatabase4NewLERK4TBufILi256EE @ 88 NONAME
	_ZN21CIptvSettingsDatabaseD0Ev @ 89 NONAME
	_ZN21CIptvSettingsDatabaseD1Ev @ 90 NONAME
	_ZN21CIptvSettingsDatabaseD2Ev @ 91 NONAME
	_ZN22CIptvEpgScheduleSearch28LinearOrderOfSchedulesByNameERKS_S1_ @ 92 NONAME
	_ZN22CIptvEpgScheduleSearch4NewLEv @ 93 NONAME
	_ZN22CIptvLiveUIObjectTimer10StartTimerERK5TTime @ 94 NONAME
	_ZN22CIptvLiveUIObjectTimer4NewLEP24MIptvLiveUITimerObserver @ 95 NONAME
	_ZN22CIptvLiveUIObjectTimerD0Ev @ 96 NONAME
	_ZN22CIptvLiveUIObjectTimerD1Ev @ 97 NONAME
	_ZN22CIptvLiveUIObjectTimerD2Ev @ 98 NONAME
	_ZN23CIptvContentHandlerBase10OnContentLERK6TDesC8i @ 99 NONAME
	_ZN23CIptvContentHandlerBase13OnEndElementLERKN3Xml8RTagInfoEi @ 100 NONAME
	_ZN23CIptvContentHandlerBase14BaseConstructLEv @ 101 NONAME
	_ZN23CIptvContentHandlerBase14OnEndDocumentLEi @ 102 NONAME
	_ZN23CIptvContentHandlerBase15OnStartElementLERKN3Xml8RTagInfoERK6RArrayINS0_10RAttributeEEi @ 103 NONAME
	_ZN23CIptvContentHandlerBase16OnSkippedEntityLERK7RStringi @ 104 NONAME
	_ZN23CIptvContentHandlerBase16OnStartDocumentLERKN3Xml19RDocumentParametersEi @ 105 NONAME
	_ZN23CIptvContentHandlerBase19OnEndPrefixMappingLERK7RStringi @ 106 NONAME
	_ZN23CIptvContentHandlerBase20GetExtendedInterfaceEl @ 107 NONAME
	_ZN23CIptvContentHandlerBase21OnStartPrefixMappingLERK7RStringS2_i @ 108 NONAME
	_ZN23CIptvContentHandlerBase22OnIgnorableWhiteSpaceLERK6TDesC8i @ 109 NONAME
	_ZN23CIptvContentHandlerBase24OnProcessingInstructionLERK6TDesC8S2_i @ 110 NONAME
	_ZN23CIptvContentHandlerBase7OnErrorEi @ 111 NONAME
	_ZN23CIptvContentHandlerBaseC1Ev @ 112 NONAME
	_ZN23CIptvContentHandlerBaseC2Ev @ 113 NONAME
	_ZN23CIptvContentHandlerBaseD0Ev @ 114 NONAME
	_ZN23CIptvContentHandlerBaseD1Ev @ 115 NONAME
	_ZN23CIptvContentHandlerBaseD2Ev @ 116 NONAME
	_ZN23CIptvLiveUIImageHandler10LoadImageLERK7TDesC16 @ 117 NONAME
	_ZN23CIptvLiveUIImageHandler4NewLER24MIptvLiveUIImageObserver @ 118 NONAME
	_ZN23CIptvLiveUIImageHandler9LoadIconLEP13CAknIconArrayiiRK5TSizeRK7TDesC16i @ 119 NONAME
	_ZN23CIptvLiveUIImageHandlerD0Ev @ 120 NONAME
	_ZN23CIptvLiveUIImageHandlerD1Ev @ 121 NONAME
	_ZN23CIptvLiveUIImageHandlerD2Ev @ 122 NONAME
	_ZN26CIptvEpgLatestEpgAvailable12SetServiceIdERKm @ 123 NONAME
	_ZN26CIptvEpgLatestEpgAvailable12SetStartTimeERK5TTime @ 124 NONAME
	_ZN26CIptvEpgLatestEpgAvailable4NewLEv @ 125 NONAME
	_ZN27CIptvEpgProgramWithSchedule10SetEndTimeERK5TTime @ 126 NONAME
	_ZN27CIptvEpgProgramWithSchedule12SetStartTimeERK5TTime @ 127 NONAME
	_ZN27CIptvEpgProgramWithSchedule4NewLEv @ 128 NONAME
	_ZN27CIptvEpgProgramWithSchedule8ScheduleEv @ 129 NONAME
	_ZNK15CIptvEpgChannel10ChannelSDPEv @ 130 NONAME
	_ZNK15CIptvEpgChannel10ChannelURIEv @ 131 NONAME
	_ZNK15CIptvEpgChannel11ChannelNameEv @ 132 NONAME
	_ZNK15CIptvEpgChannel12ChannelOrderEv @ 133 NONAME
	_ZNK15CIptvEpgChannel15ChannelLogoPathEv @ 134 NONAME
	_ZNK15CIptvEpgChannel18ChannelDescriptionEv @ 135 NONAME
	_ZNK15CIptvEpgChannel9ChannelIdEv @ 136 NONAME
	_ZNK15CIptvEpgChannel9ServiceIdEv @ 137 NONAME
	_ZNK15CIptvEpgProgram10ProgramSDPEv @ 138 NONAME
	_ZNK15CIptvEpgProgram10ProgramURIEv @ 139 NONAME
	_ZNK15CIptvEpgProgram11ProgramNameEv @ 140 NONAME
	_ZNK15CIptvEpgProgram12ProgramGenreEv @ 141 NONAME
	_ZNK15CIptvEpgProgram15ProgramLanguageEv @ 142 NONAME
	_ZNK15CIptvEpgProgram18ProgramDescriptionEv @ 143 NONAME
	_ZNK15CIptvEpgProgram21ProgramParentalRatingEv @ 144 NONAME
	_ZNK15CIptvEpgProgram9ChannelIdEv @ 145 NONAME
	_ZNK15CIptvEpgProgram9ProgramIdEv @ 146 NONAME
	_ZNK15CIptvEpgProgram9ServiceIdEv @ 147 NONAME
	_ZNK26CIptvEpgLatestEpgAvailable12GetServiceIdEv @ 148 NONAME
	_ZNK26CIptvEpgLatestEpgAvailable12GetStartTimeEv @ 149 NONAME
	_ZNK27CIptvEpgProgramWithSchedule7EndTimeEv @ 150 NONAME
	_ZNK27CIptvEpgProgramWithSchedule9StartTimeEv @ 151 NONAME
	_ZTI13CIptvDownload @ 152 NONAME ; #<TI>#
	_ZTI15CIptvEpgChannel @ 153 NONAME ; #<TI>#
	_ZTI15CIptvEpgProgram @ 154 NONAME ; #<TI>#
	_ZTI16CIptvEpgDatabase @ 155 NONAME ; #<TI>#
	_ZTI16CIptvEpgSchedule @ 156 NONAME ; #<TI>#
	_ZTI19CIptvEpgFileSwapper @ 157 NONAME ; #<TI>#
	_ZTI21CIptvSettingsDatabase @ 158 NONAME ; #<TI>#
	_ZTI22CIptvEpgScheduleSearch @ 159 NONAME ; #<TI>#
	_ZTI22CIptvLiveUIObjectTimer @ 160 NONAME ; #<TI>#
	_ZTI23CIptvContentHandlerBase @ 161 NONAME ; #<TI>#
	_ZTI23CIptvLiveUIImageHandler @ 162 NONAME ; #<TI>#
	_ZTI26CIptvEpgLatestEpgAvailable @ 163 NONAME ; #<TI>#
	_ZTI27CIptvEpgProgramWithSchedule @ 164 NONAME ; #<TI>#
	_ZTV13CIptvDownload @ 165 NONAME ; #<VT>#
	_ZTV15CIptvEpgChannel @ 166 NONAME ; #<VT>#
	_ZTV15CIptvEpgProgram @ 167 NONAME ; #<VT>#
	_ZTV16CIptvEpgDatabase @ 168 NONAME ; #<VT>#
	_ZTV16CIptvEpgSchedule @ 169 NONAME ; #<VT>#
	_ZTV19CIptvEpgFileSwapper @ 170 NONAME ; #<VT>#
	_ZTV21CIptvSettingsDatabase @ 171 NONAME ; #<VT>#
	_ZTV22CIptvEpgScheduleSearch @ 172 NONAME ; #<VT>#
	_ZTV22CIptvLiveUIObjectTimer @ 173 NONAME ; #<VT>#
	_ZTV23CIptvContentHandlerBase @ 174 NONAME ; #<VT>#
	_ZTV23CIptvLiveUIImageHandler @ 175 NONAME ; #<VT>#
	_ZTV26CIptvEpgLatestEpgAvailable @ 176 NONAME ; #<VT>#
	_ZTV27CIptvEpgProgramWithSchedule @ 177 NONAME ; #<VT>#
	_ZThn4_N23CIptvContentHandlerBase10OnContentLERK6TDesC8i @ 178 NONAME ; #<thunk>#
	_ZThn4_N23CIptvContentHandlerBase13OnEndElementLERKN3Xml8RTagInfoEi @ 179 NONAME ; #<thunk>#
	_ZThn4_N23CIptvContentHandlerBase14OnEndDocumentLEi @ 180 NONAME ; #<thunk>#
	_ZThn4_N23CIptvContentHandlerBase15OnStartElementLERKN3Xml8RTagInfoERK6RArrayINS0_10RAttributeEEi @ 181 NONAME ; #<thunk>#
	_ZThn4_N23CIptvContentHandlerBase16OnSkippedEntityLERK7RStringi @ 182 NONAME ; #<thunk>#
	_ZThn4_N23CIptvContentHandlerBase16OnStartDocumentLERKN3Xml19RDocumentParametersEi @ 183 NONAME ; #<thunk>#
	_ZThn4_N23CIptvContentHandlerBase19OnEndPrefixMappingLERK7RStringi @ 184 NONAME ; #<thunk>#
	_ZThn4_N23CIptvContentHandlerBase20GetExtendedInterfaceEl @ 185 NONAME ; #<thunk>#
	_ZThn4_N23CIptvContentHandlerBase21OnStartPrefixMappingLERK7RStringS2_i @ 186 NONAME ; #<thunk>#
	_ZThn4_N23CIptvContentHandlerBase22OnIgnorableWhiteSpaceLERK6TDesC8i @ 187 NONAME ; #<thunk>#
	_ZThn4_N23CIptvContentHandlerBase24OnProcessingInstructionLERK6TDesC8S2_i @ 188 NONAME ; #<thunk>#
	_ZThn4_N23CIptvContentHandlerBase7OnErrorEi @ 189 NONAME ; #<thunk>#
	_ZN23CIptvLiveUIImageHandler9LoadIconLEP13CAknIconArray11TAknsItemIDiiRK5TSizeRK7TDesC16i @ 190 NONAME

