EXPORTS
	_ZN21CMPXVideoPlaybackView4NewLEv @ 1 NONAME
	_ZN21CMPXVideoPlaybackView5NewLCEv @ 2 NONAME
	_ZN24CMPXVideoPdlPlaybackView4NewLEv @ 3 NONAME
	_ZN24CMPXVideoPdlPlaybackView5NewLCEv @ 4 NONAME
	_ZN26CMPXVideoPlaybackContainer14HandleCommandLEii @ 5 NONAME
	_ZN26CMPXVideoPlaybackContainer17DoHandleKeyEventLERK9TKeyEvent10TEventCode @ 6 NONAME
	_ZN26CMPXVideoPlaybackContainer21DoHandlePointerEventLERK13TPointerEvent @ 7 NONAME
	_ZN33CMPXVideoPlaybackUserInputHandler20ProcessPointerEventLEP11CCoeControlRK13TPointerEvent20TMPXVideoControlType @ 8 NONAME
	_ZTI21CMPXVideoPlaybackView @ 9 NONAME ; #<TI>#
	_ZTI24CMPXVideoPdlPlaybackView @ 10 NONAME ; #<TI>#
	_ZTI25CMPXVideoBasePlaybackView @ 11 NONAME ; #<TI>#
	_ZTI26CMPXVideoPlaybackContainer @ 12 NONAME ; #<TI>#
	_ZTI33CMPXVideoPlaybackUserInputHandler @ 13 NONAME ; #<TI>#
	_ZTV21CMPXVideoPlaybackView @ 14 NONAME ; #<VT>#
	_ZTV24CMPXVideoPdlPlaybackView @ 15 NONAME ; #<VT>#
	_ZTV25CMPXVideoBasePlaybackView @ 16 NONAME ; #<VT>#
	_ZTV26CMPXVideoPlaybackContainer @ 17 NONAME ; #<VT>#
	_ZTV33CMPXVideoPlaybackUserInputHandler @ 18 NONAME ; #<VT>#
	_ZN26CMPXVideoPlaybackContainer16UserInputHandlerEv @ 19 NONAME
	_ZTI31CMPXVideoPlaybackDisplayHandler @ 20 NONAME ; #<TI>#
	_ZTV31CMPXVideoPlaybackDisplayHandler @ 21 NONAME ; #<VT>#
	_ZN32CMPXVideoPlaybackViewFileDetails17GenerateFileNameLEv @ 22 NONAME
	_ZN32CMPXVideoPlaybackViewFileDetails18GenerateFileTitleLEv @ 23 NONAME

