EXPORTS
	_ZN13CVcxNsContent11GetDlStatusEv @ 1 NONAME
	_ZN13CVcxNsContent11GetIconPathEv @ 2 NONAME
	_ZN13CVcxNsContent11GetLanguageEv @ 3 NONAME
	_ZN13CVcxNsContent12GetContentIdEv @ 4 NONAME
	_ZN13CVcxNsContent12GetCopyrightEv @ 5 NONAME
	_ZN13CVcxNsContent12GetServiceIdEv @ 6 NONAME
	_ZN13CVcxNsContent12SetPasswordLERK7TDesC16 @ 7 NONAME
	_ZN13CVcxNsContent12SetUsernameLERK7TDesC16 @ 8 NONAME
	_ZN13CVcxNsContent13GetAgeProfileEv @ 9 NONAME
	_ZN13CVcxNsContent13GetBrowserUrlEv @ 10 NONAME
	_ZN13CVcxNsContent13GetDlProgressEv @ 11 NONAME
	_ZN13CVcxNsContent14GetDescriptionEv @ 12 NONAME
	_ZN13CVcxNsContent15GetContentTypesEv @ 13 NONAME
	_ZN13CVcxNsContent6GetUrlENS_23TVcxNsContentAccessTypeE @ 14 NONAME
	_ZN13CVcxNsContent7GetNameEv @ 15 NONAME
	_ZN13CVcxNsContent7GetSizeEv @ 16 NONAME
	_ZN13CVcxNsContent9GetAuthorEv @ 17 NONAME
	_ZN13CVcxNsContent9GetLengthEv @ 18 NONAME
	_ZN13CVcxNsService11GetIconPathEv @ 19 NONAME
	_ZN13CVcxNsService11GetPasswordEv @ 20 NONAME
	_ZN13CVcxNsService11GetUserNameEv @ 21 NONAME
	_ZN13CVcxNsService12GetServiceIdEv @ 22 NONAME
	_ZN13CVcxNsService13GetUpdateTimeEv @ 23 NONAME
	_ZN13CVcxNsService14AccountMgmtUriEv @ 24 NONAME
	_ZN13CVcxNsService15GetUpdateStatusEv @ 25 NONAME
	_ZN13CVcxNsService16GetIsReadOnlyIapEv @ 26 NONAME
	_ZN13CVcxNsService6GetIapEv @ 27 NONAME
	_ZN13CVcxNsService7GetDescEv @ 28 NONAME
	_ZN13CVcxNsService7GetNameEv @ 29 NONAME
	_ZN14CVcxNsCategory13GetCategoryIdEv @ 30 NONAME
	_ZN14CVcxNsCategory13GetVideoCountEv @ 31 NONAME
	_ZN14CVcxNsCategory7GetNameEv @ 32 NONAME
	_ZN14CVcxNsUiEngine10HandleBackEv @ 33 NONAME
	_ZN14CVcxNsUiEngine10PlayVideoLEP13CVcxNsContent @ 34 NONAME
	_ZN14CVcxNsUiEngine10VcAppStateEv @ 35 NONAME
	_ZN14CVcxNsUiEngine11PlayStreamLEP13CVcxNsContent @ 36 NONAME
	_ZN14CVcxNsUiEngine11ResetStatesEv @ 37 NONAME
	_ZN14CVcxNsUiEngine13SetVcAppStateE14TVcxNsAppState @ 38 NONAME
	_ZN14CVcxNsUiEngine14ActiveCategoryEv @ 39 NONAME
	_ZN14CVcxNsUiEngine16GetAvailableIapLEv @ 40 NONAME
	_ZN14CVcxNsUiEngine16PlayLastWatchedLEv @ 41 NONAME
	_ZN14CVcxNsUiEngine16ProgressHandlerLEv @ 42 NONAME
	_ZN14CVcxNsUiEngine19GetContentProviderLEv @ 43 NONAME
	_ZN14CVcxNsUiEngine19GetServiceProviderLEv @ 44 NONAME
	_ZN14CVcxNsUiEngine20GetCategoryProviderLEv @ 45 NONAME
	_ZN14CVcxNsUiEngine21ContentSearchHandlerLEv @ 46 NONAME
	_ZN14CVcxNsUiEngine22DecreaseReferenceCountEv @ 47 NONAME
	_ZN14CVcxNsUiEngine22VideoPlaybackStartingLEP13CVcxNsContent @ 48 NONAME
	_ZN14CVcxNsUiEngine9InstanceLEv @ 49 NONAME
	_ZN21CVcxNsServiceSettings11AddServiceLERK7TDesC16S2_S2_R12CIptvIapListN12CIptvService12TServiceTypeERK4TUidS9_S9_ @ 50 NONAME
	_ZN21CVcxNsServiceSettings11GetServiceLEmR12CIptvService @ 51 NONAME
	_ZN21CVcxNsServiceSettings14DeleteServiceLEm @ 52 NONAME
	_ZN21CVcxNsServiceSettings14UpdateServiceLER12CIptvService @ 53 NONAME
	_ZN21CVcxNsServiceSettings15GetAllServicesLEv @ 54 NONAME
	_ZN21CVcxNsServiceSettings18GetServicesByTypeLEN12CIptvService12TServiceTypeE @ 55 NONAME
	_ZN21CVcxNsServiceSettings23GetAllSelectedServicesLERi @ 56 NONAME
	_ZN21CVcxNsServiceSettings24GetIapListForNewServiceLER12CIptvIapList @ 57 NONAME
	_ZN21CVcxNsServiceSettings29GetScheduledDownloadSettingsLEmRmR35TIptvVodScheduleConnectionConditionS0_ @ 58 NONAME
	_ZN21CVcxNsServiceSettings29SetScheduledDownloadSettingsLEmm35TIptvVodScheduleConnectionConditionm @ 59 NONAME
	_ZN21CVcxNsServiceSettings4NewLEv @ 60 NONAME
	_ZNK13CVcxNsService4TypeEv @ 61 NONAME
	_ZTI13CVcxNsContent @ 62 NONAME ; #<TI>#
	_ZTI13CVcxNsService @ 63 NONAME ; #<TI>#
	_ZTI14CVcxNsCategory @ 64 NONAME ; #<TI>#
	_ZTI14CVcxNsUiEngine @ 65 NONAME ; #<TI>#
	_ZTI17CVcxNsContentList @ 66 NONAME ; #<TI>#
	_ZTI17CVcxNsEventRouter @ 67 NONAME ; #<TI>#
	_ZTI18CVcxNsCategoryList @ 68 NONAME ; #<TI>#
	_ZTI19CVcxNsContentAccess @ 69 NONAME ; #<TI>#
	_ZTI21CVcxNsContentProvider @ 70 NONAME ; #<TI>#
	_ZTI21CVcxNsServiceProvider @ 71 NONAME ; #<TI>#
	_ZTI21CVcxNsServiceSettings @ 72 NONAME ; #<TI>#
	_ZTI22CVcxNsCategoryProvider @ 73 NONAME ; #<TI>#
	_ZTI26CVcxNsContentClientHandler @ 74 NONAME ; #<TI>#
	_ZTI26CVcxNsContentSearchHandler @ 75 NONAME ; #<TI>#
	_ZTI26CVcxNsServiceClientHandler @ 76 NONAME ; #<TI>#
	_ZTI32CVcxNsMpxCollectionClientHandler @ 77 NONAME ; #<TI>#
	_ZTV13CVcxNsContent @ 78 NONAME ; #<VT>#
	_ZTV13CVcxNsService @ 79 NONAME ; #<VT>#
	_ZTV14CVcxNsCategory @ 80 NONAME ; #<VT>#
	_ZTV14CVcxNsUiEngine @ 81 NONAME ; #<VT>#
	_ZTV17CVcxNsContentList @ 82 NONAME ; #<VT>#
	_ZTV17CVcxNsEventRouter @ 83 NONAME ; #<VT>#
	_ZTV18CVcxNsCategoryList @ 84 NONAME ; #<VT>#
	_ZTV19CVcxNsContentAccess @ 85 NONAME ; #<VT>#
	_ZTV21CVcxNsContentProvider @ 86 NONAME ; #<VT>#
	_ZTV21CVcxNsServiceProvider @ 87 NONAME ; #<VT>#
	_ZTV21CVcxNsServiceSettings @ 88 NONAME ; #<VT>#
	_ZTV22CVcxNsCategoryProvider @ 89 NONAME ; #<VT>#
	_ZTV26CVcxNsContentClientHandler @ 90 NONAME ; #<VT>#
	_ZTV26CVcxNsContentSearchHandler @ 91 NONAME ; #<VT>#
	_ZTV26CVcxNsServiceClientHandler @ 92 NONAME ; #<VT>#
	_ZTV32CVcxNsMpxCollectionClientHandler @ 93 NONAME ; #<VT>#
	_ZN14CVcxNsUiEngine18GetAvailableWapIdLEv @ 94 NONAME

