EXPORTS
	_ZN15CIptvTestDlInfo13DlStartFailedEmm12TIptvDlError @ 1 NONAME
	_ZN15CIptvTestDlInfo13DlUpdateStateEmmm12TIptvDlError @ 2 NONAME
	_ZN15CIptvTestDlInfo4NewLEv @ 3 NONAME
	_ZN15CIptvTestDlInfo6DlStopEmmm12TIptvDlError @ 4 NONAME
	_ZN15CIptvTestDlInfo7DlGoingEmmR25CIptvMyVideosGlobalFileIdm12TIptvDlError @ 5 NONAME
	_ZN15CIptvTestDlInfo7DlStartEmmmm17TIptvDownloadType @ 6 NONAME
	_ZN15CIptvTestDlInfo9DlTimeOutEmm @ 7 NONAME
	_ZN15CIptvTestDlInfoD0Ev @ 8 NONAME
	_ZN15CIptvTestDlInfoD1Ev @ 9 NONAME
	_ZN15CIptvTestDlInfoD2Ev @ 10 NONAME
	_ZN15CIptvTestLogger3LogE11TRefByValueIK7TDesC16Ez @ 11 NONAME
	_ZN15CIptvTestLogger4NewLERK7TDesC16S2_ @ 12 NONAME
	_ZN15CIptvTestLoggerD0Ev @ 13 NONAME
	_ZN15CIptvTestLoggerD1Ev @ 14 NONAME
	_ZN15CIptvTestLoggerD2Ev @ 15 NONAME
	_ZN16CIptvServiceInfo4NewLERS_ @ 16 NONAME
	_ZN16CIptvServiceInfo4NewLEv @ 17 NONAME
	_ZN16CIptvServiceInfoD0Ev @ 18 NONAME
	_ZN16CIptvServiceInfoD1Ev @ 19 NONAME
	_ZN16CIptvServiceInfoD2Ev @ 20 NONAME
	_ZN18CIptvTestUtilities10GetUsedIapEmRmR6TDes16 @ 21 NONAME
	_ZN18CIptvTestUtilities10SetUsedIapEmm @ 22 NONAME
	_ZN18CIptvTestUtilities10VerifyDataER7TDesC16RN19CIptvTestVerifyData13TVerifyResultE @ 23 NONAME
	_ZN18CIptvTestUtilities11GetFileSizeER7TDesC16Rm @ 24 NONAME
	_ZN18CIptvTestUtilities11SetTimeZoneER7TDesC16 @ 25 NONAME
	_ZN18CIptvTestUtilities12DeleteVideoLER25CIptvMyVideosGlobalFileId @ 26 NONAME
	_ZN18CIptvTestUtilities12ReallycleanLEv @ 27 NONAME
	_ZN18CIptvTestUtilities13CreateBadIapLER7TDesC16 @ 28 NONAME
	_ZN18CIptvTestUtilities13SetSystemTimeE5TTime @ 29 NONAME
	_ZN18CIptvTestUtilities14GetContentIdsLEmmR6RArrayImEmm @ 30 NONAME
	_ZN18CIptvTestUtilities14GetIapNameByIdER6TDes16m @ 31 NONAME
	_ZN18CIptvTestUtilities14GetVodEcgListLEmmR13RPointerArrayI34CIptvVodContentContentBriefDetailsE @ 32 NONAME
	_ZN18CIptvTestUtilities14RefreshServiceEm5TTime @ 33 NONAME
	_ZN18CIptvTestUtilities14VerifyServicesER12CIptvServiceS1_ @ 34 NONAME
	_ZN18CIptvTestUtilities15GetIapIdByNameLERK7TDesC16Rm @ 35 NONAME
	_ZN18CIptvTestUtilities15GetIapIdByTypeLEN14CVCXTestCommon16TIptvTestIapTypeERmi @ 36 NONAME
	_ZN18CIptvTestUtilities15WriteVerifyDataER7TDesC1611TRefByValueIKS0_Ez @ 37 NONAME
	_ZN18CIptvTestUtilities15WriteVerifyDataER7TDesC16S1_ @ 38 NONAME
	_ZN18CIptvTestUtilities16CreateVerifyDataER7TDesC16i @ 39 NONAME
	_ZN18CIptvTestUtilities16CreateVideoFileLEN21CIptvTestVideoCreator18TIptvTestVideoTypeER7TDesC16i @ 40 NONAME
	_ZN18CIptvTestUtilities16GetServiceFromDbEi @ 41 NONAME
	_ZN18CIptvTestUtilities16PrintIptvServiceEP12CIptvService @ 42 NONAME
	_ZN18CIptvTestUtilities17CreateVideoFilesLEN21CIptvTestVideoCreator18TIptvTestVideoTypeER7TDesC16iR13RPointerArrayI7HBufC16E @ 43 NONAME
	_ZN18CIptvTestUtilities17DeleteDummyFilesLEi @ 44 NONAME
	_ZN18CIptvTestUtilities18GetServicesFromDbLER13RPointerArrayI12CIptvServiceE @ 45 NONAME
	_ZN18CIptvTestUtilities18GetServicesFromDbLER13RPointerArrayI12CIptvServiceEmN28CIptvServiceManagementClient6TOrderE @ 46 NONAME
	_ZN18CIptvTestUtilities18ParseIntFromStringERiR7TDesC16 @ 47 NONAME
	_ZN18CIptvTestUtilities18SetDriveFreeSpaceLEij @ 48 NONAME
	_ZN18CIptvTestUtilities19GetServiceIdByNameLER7TDesC16Ri @ 49 NONAME
	_ZN18CIptvTestUtilities20EnsureFileIsNotInUseERK7TPtrC16 @ 50 NONAME
	_ZN18CIptvTestUtilities21GetContentAccessListLEmmR13RPointerArrayI17CIptvMediaContentE @ 51 NONAME
	_ZN18CIptvTestUtilities22EnableVerifyTimestampsEi @ 52 NONAME
	_ZN18CIptvTestUtilities22GetVodEcgCategoryListLEmmR13RPointerArrayI35CIptvVodContentCategoryBriefDetailsE @ 53 NONAME
	_ZN18CIptvTestUtilities22WriteVerifyIptvServiceER6TDes16P12CIptvService @ 54 NONAME
	_ZN18CIptvTestUtilities24AdvanceSystemTime1SecondEv @ 55 NONAME
	_ZN18CIptvTestUtilities24GetMyVideosVideoDetailsLER25CIptvMyVideosGlobalFileIdR29CIptvMyVideosVideoFullDetails @ 56 NONAME
	_ZN18CIptvTestUtilities26CreateIptvServiceInstanceLER16CIptvServiceInfo @ 57 NONAME
	_ZN18CIptvTestUtilities28GetVodContentAllDetailsListLEmR13RPointerArrayI29CIptvTestVodContentAllDetailsE @ 58 NONAME
	_ZN18CIptvTestUtilities28GetVodContentContentDetailsLEmmR33CIptvVodContentContentFullDetails @ 59 NONAME
	_ZN18CIptvTestUtilities4NewLEv @ 60 NONAME
	_ZN18CIptvTestUtilities9GetIapIdLERK7TDesC16Rm @ 61 NONAME
	_ZN18CIptvTestUtilities9PrintIapsEv @ 62 NONAME
	_ZN19CIptvTestDlFileInfo4NewLEv @ 63 NONAME
	_ZN19CIptvTestDlFileInfoD0Ev @ 64 NONAME
	_ZN19CIptvTestDlFileInfoD1Ev @ 65 NONAME
	_ZN19CIptvTestDlFileInfoD2Ev @ 66 NONAME
	_ZN22CIptvTestEcgUpdateInfo13EcgUpdateStopEmii @ 67 NONAME
	_ZN22CIptvTestEcgUpdateInfo14EcgUpdateStartEmm @ 68 NONAME
	_ZN22CIptvTestEcgUpdateInfo4NewLEv @ 69 NONAME
	_ZN22CIptvTestEcgUpdateInfo9WriteLogLE11TRefByValueIK7TDesC16Ez @ 70 NONAME
	_ZN22CIptvTestEcgUpdateInfo9WriteLogLER7TDesC16 @ 71 NONAME
	_ZN22CIptvTestEcgUpdateInfoD0Ev @ 72 NONAME
	_ZN22CIptvTestEcgUpdateInfoD1Ev @ 73 NONAME
	_ZN22CIptvTestEcgUpdateInfoD2Ev @ 74 NONAME
	_ZN29CIptvTestVodContentAllDetails4NewLEv @ 75 NONAME
	_ZN29CIptvTestVodContentAllDetailsD0Ev @ 76 NONAME
	_ZN29CIptvTestVodContentAllDetailsD1Ev @ 77 NONAME
	_ZN29CIptvTestVodContentAllDetailsD2Ev @ 78 NONAME
	_ZTI15CIptvTestDlInfo @ 79 NONAME ; #<TI>#
	_ZTI15CIptvTestLogger @ 80 NONAME ; #<TI>#
	_ZTI16CIptvServiceInfo @ 81 NONAME ; #<TI>#
	_ZTI18CIptvTestMVApiUtil @ 82 NONAME ; #<TI>#
	_ZTI18CIptvTestSMApiUtil @ 83 NONAME ; #<TI>#
	_ZTI18CIptvTestUtilities @ 84 NONAME ; #<TI>#
	_ZTI18CIptvTestVCApiUtil @ 85 NONAME ; #<TI>#
	_ZTI19CIptvTestDlFileInfo @ 86 NONAME ; #<TI>#
	_ZTI22CIptvTestEcgUpdateInfo @ 87 NONAME ; #<TI>#
	_ZTI29CIptvTestVodContentAllDetails @ 88 NONAME ; #<TI>#
	_ZTV15CIptvTestDlInfo @ 89 NONAME ; #<VT>#
	_ZTV15CIptvTestLogger @ 90 NONAME ; #<VT>#
	_ZTV16CIptvServiceInfo @ 91 NONAME ; #<VT>#
	_ZTV18CIptvTestMVApiUtil @ 92 NONAME ; #<VT>#
	_ZTV18CIptvTestSMApiUtil @ 93 NONAME ; #<VT>#
	_ZTV18CIptvTestUtilities @ 94 NONAME ; #<VT>#
	_ZTV18CIptvTestVCApiUtil @ 95 NONAME ; #<VT>#
	_ZTV19CIptvTestDlFileInfo @ 96 NONAME ; #<VT>#
	_ZTV22CIptvTestEcgUpdateInfo @ 97 NONAME ; #<VT>#
	_ZTV29CIptvTestVodContentAllDetails @ 98 NONAME ; #<VT>#

