EXPORTS
	?PhoneMemoryDrive@CIptvDriveMonitor@@QAEHXZ @ 1 NONAME ; int CIptvDriveMonitor::PhoneMemoryDrive(void)
	?SetLastWatchedDataL@CIptvLastWatchedApi@@QAEHAAVCIptvLastWatchedData@@@Z @ 2 NONAME ; int CIptvLastWatchedApi::SetLastWatchedDataL(class CIptvLastWatchedData &)
	?LastPlaybackPositionFeatureSupported@CIptvUtil@@SAHXZ @ 3 NONAME ; int CIptvUtil::LastPlaybackPositionFeatureSupported(void)
	?IsMmcInserted@CIptvDriveMonitor@@QAEHXZ @ 4 NONAME ; int CIptvDriveMonitor::IsMmcInserted(void)
	?DeleteIap@CIptvIapList@@QAEHAAVTIptvIap@@@Z @ 5 NONAME ; int CIptvIapList::DeleteIap(class TIptvIap &)
	?FixedDrive@CIptvDriveMonitor@@QAEHH@Z @ 6 NONAME ; int CIptvDriveMonitor::FixedDrive(int)
	?GetLanguageByCountryCode@CIptvUtil@@SA?AW4TLanguage@@ABVTDesC16@@@Z @ 7 NONAME ; enum TLanguage CIptvUtil::GetLanguageByCountryCode(class TDesC16 const &)
	?CountExternalizeSize@TIptvUint32StreamObject@@UAEKXZ @ 8 NONAME ; unsigned long TIptvUint32StreamObject::CountExternalizeSize(void)
	??0TIptvDriveMonitorEvent@@QAE@XZ @ 9 NONAME ; TIptvDriveMonitorEvent::TIptvDriveMonitorEvent(void)
	?NewL@CIptvTimer@@SAPAV1@HAAVMIptvTimerObserver@@@Z @ 10 NONAME ; class CIptvTimer * CIptvTimer::NewL(int, class MIptvTimerObserver &)
	?ConvertL@CVcxNsImageConverter@@QAEPAVCGulIcon@@ABVTDesC16@@VTSize@@H@Z @ 11 NONAME ; class CGulIcon * CVcxNsImageConverter::ConvertL(class TDesC16 const &, class TSize, int)
	??1CIptvTimer@@UAE@XZ @ 12 NONAME ; CIptvTimer::~CIptvTimer(void)
	?NewL@CIptvEpgCategory@@SAPAV1@XZ @ 13 NONAME ; class CIptvEpgCategory * CIptvEpgCategory::NewL(void)
	?ConnectionTypeL@CIptvUtil@@SA?AW4TConnectionType@1@KAAH@Z @ 14 NONAME ; enum CIptvUtil::TConnectionType CIptvUtil::ConnectionTypeL(unsigned long, int &)
	?InternalizeL@CIptvIapList@@QAEXAAVRDesReadStream@@@Z @ 15 NONAME ; void CIptvIapList::InternalizeL(class RDesReadStream &)
	?GetIap@CIptvIapList@@QAEHEAAVTIptvIap@@@Z @ 16 NONAME ; int CIptvIapList::GetIap(unsigned char, class TIptvIap &)
	?LongPrintL@CIptvUtil@@SAXAAVTDesC16@@@Z @ 17 NONAME ; void CIptvUtil::LongPrintL(class TDesC16 &)
	?NewL@CIptvDriveMonitor@@SAPAV1@ABVRFs@@@Z @ 18 NONAME ; class CIptvDriveMonitor * CIptvDriveMonitor::NewL(class RFs const &)
	?RemoveObserverL@CIptvDriveMonitor@@QAEXPAVMIptvDriveMonitorObserver@@@Z @ 19 NONAME ; void CIptvDriveMonitor::RemoveObserverL(class MIptvDriveMonitorObserver *)
	??1CIptvDriveMonitor@@UAE@XZ @ 20 NONAME ; CIptvDriveMonitor::~CIptvDriveMonitor(void)
	?InternalizeL@TIptvIap@@QAEXAAVRDesReadStream@@@Z @ 21 NONAME ; void TIptvIap::InternalizeL(class RDesReadStream &)
	?CountExternalizeSize@CIptvIapList@@QAEKXZ @ 22 NONAME ; unsigned long CIptvIapList::CountExternalizeSize(void)
	?Uri@CIptvLastWatchedData@@QBEABVTDesC16@@XZ @ 23 NONAME ; class TDesC16 const & CIptvLastWatchedData::Uri(void) const
	??1TIptvDriveInfo@@QAE@XZ @ 24 NONAME ; TIptvDriveInfo::~TIptvDriveInfo(void)
	?NewL@CIptvDriveMonitor@@SAPAV1@XZ @ 25 NONAME ; class CIptvDriveMonitor * CIptvDriveMonitor::NewL(void)
	??0CIptvTimer@@AAE@HAAVMIptvTimerObserver@@@Z @ 26 NONAME ; CIptvTimer::CIptvTimer(int, class MIptvTimerObserver &)
	?ContentType@CIptvLastWatchedData@@QBEHXZ @ 27 NONAME ; int CIptvLastWatchedData::ContentType(void) const
	?ReadHBufCFromStreamL@CIptvUtil@@SAPAVHBufC16@@AAVRReadStream@@@Z @ 28 NONAME ; class HBufC16 * CIptvUtil::ReadHBufCFromStreamL(class RReadStream &)
	?ExternalizeL@TIptvUint32StreamObject@@UAEXAAVRWriteStream@@@Z @ 29 NONAME ; void TIptvUint32StreamObject::ExternalizeL(class RWriteStream &)
	?StartL@CVcxIadUpdate@@QAEXXZ @ 30 NONAME ; void CVcxIadUpdate::StartL(void)
	?MemoryCardDriveL@CIptvDriveMonitor@@QAEHXZ @ 31 NONAME ; int CIptvDriveMonitor::MemoryCardDriveL(void)
	?GetMediaContentUrl@CIptvMediaContent@@QBE?AVTPtrC16@@XZ @ 32 NONAME ; class TPtrC16 CIptvMediaContent::GetMediaContentUrl(void) const
	?IapL@CIptvIapList@@QAEAAVTIptvIap@@E@Z @ 33 NONAME ; class TIptvIap & CIptvIapList::IapL(unsigned char)
	?WriteHBufCToStreamL@CIptvUtil@@SAXPAVHBufC16@@AAVRWriteStream@@@Z @ 34 NONAME ; void CIptvUtil::WriteHBufCToStreamL(class HBufC16 *, class RWriteStream &)
	?MpxId@CIptvLastWatchedData@@QBEHXZ @ 35 NONAME ; int CIptvLastWatchedData::MpxId(void) const
	?MimeType@CIptvLastWatchedData@@QBEABVTDesC16@@XZ @ 36 NONAME ; class TDesC16 const & CIptvLastWatchedData::MimeType(void) const
	?InternalizeL@CIptvMediaContent@@QAEXAAVRReadStream@@@Z @ 37 NONAME ; void CIptvMediaContent::InternalizeL(class RReadStream &)
	?StringToInt@CIptvUtil@@SAKAAVTDesC16@@@Z @ 38 NONAME ; unsigned long CIptvUtil::StringToInt(class TDesC16 &)
	?NewL@CIptvMediaContent@@SAPAV1@XZ @ 39 NONAME ; class CIptvMediaContent * CIptvMediaContent::NewL(void)
	?SortByPriorityL@CIptvIapList@@QAEXXZ @ 40 NONAME ; void CIptvIapList::SortByPriorityL(void)
	?IsMassStorageDriveL@CIptvDriveMonitor@@QAEHH@Z @ 41 NONAME ; int CIptvDriveMonitor::IsMassStorageDriveL(int)
	?ContentId@CIptvLastWatchedData@@QBEKXZ @ 42 NONAME ; unsigned long CIptvLastWatchedData::ContentId(void) const
	?SetLastVideoPlayPoint@CIptvLastWatchedData@@QAEHK@Z @ 43 NONAME ; int CIptvLastWatchedData::SetLastVideoPlayPoint(unsigned long)
	?SetParentalControl@CIptvLastWatchedData@@QAEHK@Z @ 44 NONAME ; int CIptvLastWatchedData::SetParentalControl(unsigned long)
	?NewL@CIptvTerminalVideoSupport@@SAPAV1@XZ @ 45 NONAME ; class CIptvTerminalVideoSupport * CIptvTerminalVideoSupport::NewL(void)
	?SetContentId@CIptvLastWatchedData@@QAEHK@Z @ 46 NONAME ; int CIptvLastWatchedData::SetContentId(unsigned long)
	?CountExternalizeSize@CIptvMediaContent@@QAEKXZ @ 47 NONAME ; unsigned long CIptvMediaContent::CountExternalizeSize(void)
	?IsWlanIapL@CIptvUtil@@SAHK@Z @ 48 NONAME ; int CIptvUtil::IsWlanIapL(unsigned long)
	?ReadUint64FromStreamL@CIptvUtil@@SAXAA_KAAVRReadStream@@@Z @ 49 NONAME ; void CIptvUtil::ReadUint64FromStreamL(unsigned long long &, class RReadStream &)
	?ExternalizeL@CIptvMediaContent@@QBEXAAVRWriteStream@@@Z @ 50 NONAME ; void CIptvMediaContent::ExternalizeL(class RWriteStream &) const
	?ViewUid@CIptvLastWatchedData@@QBE?AVTUid@@XZ @ 51 NONAME ; class TUid CIptvLastWatchedData::ViewUid(void) const
	?SetMimeTypeL@CIptvLastWatchedData@@QAEHABVTDesC16@@@Z @ 52 NONAME ; int CIptvLastWatchedData::SetMimeTypeL(class TDesC16 const &)
	?MassStorageDrive@CIptvDriveMonitor@@QAEHXZ @ 53 NONAME ; int CIptvDriveMonitor::MassStorageDrive(void)
	?RefreshAvailableDrivesL@CIptvDriveMonitor@@QAEXXZ @ 54 NONAME ; void CIptvDriveMonitor::RefreshAvailableDrivesL(void)
	?CountExternalizeSize@CIptvLastWatchedData@@QBEKXZ @ 55 NONAME ; unsigned long CIptvLastWatchedData::CountExternalizeSize(void) const
	?ParentalControl@CIptvLastWatchedData@@QBEKXZ @ 56 NONAME ; unsigned long CIptvLastWatchedData::ParentalControl(void) const
	??0TIptvDriveInfo@@QAE@XZ @ 57 NONAME ; TIptvDriveInfo::TIptvDriveInfo(void)
	?SetSearchString@TIptvRssSearchQuery@@QAEXAAVTDesC16@@@Z @ 58 NONAME ; void TIptvRssSearchQuery::SetSearchString(class TDesC16 &)
	?SetParametersL@CIptvLastWatchedData@@QAEHABVTDesC8@@@Z @ 59 NONAME ; int CIptvLastWatchedData::SetParametersL(class TDesC8 const &)
	?SetParameterId@CIptvLastWatchedData@@QAEXABVTUid@@@Z @ 60 NONAME ; void CIptvLastWatchedData::SetParameterId(class TUid const &)
	?IsAllowedIapL@CIptvUtil@@SAHKAAV?$RArray@K@@@Z @ 61 NONAME ; int CIptvUtil::IsAllowedIapL(unsigned long, class RArray<unsigned long> &)
	?IsMemoryCardDriveL@CIptvDriveMonitor@@QAEHH@Z @ 62 NONAME ; int CIptvDriveMonitor::IsMemoryCardDriveL(int)
	?NewL@CVcxNsImageConverter@@SAPAV1@AAVMVcxNsImageConverterObserver@@AAVRFs@@@Z @ 63 NONAME ; class CVcxNsImageConverter * CVcxNsImageConverter::NewL(class MVcxNsImageConverterObserver &, class RFs &)
	?LastVideoPlayPoint@CIptvLastWatchedData@@QBEKXZ @ 64 NONAME ; unsigned long CIptvLastWatchedData::LastVideoPlayPoint(void) const
	?DeleteIap@CIptvIapList@@QAEHE@Z @ 65 NONAME ; int CIptvIapList::DeleteIap(unsigned char)
	?NewL@CIptvIapList@@SAPAV1@XZ @ 66 NONAME ; class CIptvIapList * CIptvIapList::NewL(void)
	?NewL@CIptvLastWatchedData@@SAPAV1@XZ @ 67 NONAME ; class CIptvLastWatchedData * CIptvLastWatchedData::NewL(void)
	?UpdateLastVideoPlayPointL@CIptvLastWatchedApi@@QAEHK@Z @ 68 NONAME ; int CIptvLastWatchedApi::UpdateLastVideoPlayPointL(unsigned long)
	?FixedDriveL@CIptvDriveMonitor@@QAEHH@Z @ 69 NONAME ; int CIptvDriveMonitor::FixedDriveL(int)
	?SetIconPathL@CIptvLastWatchedData@@QAEHABVTDesC16@@@Z @ 70 NONAME ; int CIptvLastWatchedData::SetIconPathL(class TDesC16 const &)
	?IconPath@CIptvLastWatchedData@@QBEABVTDesC16@@XZ @ 71 NONAME ; class TDesC16 const & CIptvLastWatchedData::IconPath(void) const
	?ConstructL@CIptvTimer@@AAEXXZ @ 72 NONAME ; void CIptvTimer::ConstructL(void)
	?ArrayPos@CIptvDriveMonitor@@QAEHH@Z @ 73 NONAME ; int CIptvDriveMonitor::ArrayPos(int)
	?WriteDesToStreamL@CIptvUtil@@SAXABVTDesC16@@AAVRWriteStream@@@Z @ 74 NONAME ; void CIptvUtil::WriteDesToStreamL(class TDesC16 const &, class RWriteStream &)
	?CountExternalizeSize@TIptvIap@@QAEKXZ @ 75 NONAME ; unsigned long TIptvIap::CountExternalizeSize(void)
	?IsPresentL@CIptvDriveMonitor@@QAEHH@Z @ 76 NONAME ; int CIptvDriveMonitor::IsPresentL(int)
	?SetLaunchType@CIptvLastWatchedData@@QAEXW4TLaunchType@1@@Z @ 77 NONAME ; void CIptvLastWatchedData::SetLaunchType(enum CIptvLastWatchedData::TLaunchType)
	?SystemDrive@CIptvDriveMonitor@@QAEHXZ @ 78 NONAME ; int CIptvDriveMonitor::SystemDrive(void)
	?EnsureAndHidePathL@CIptvUtil@@SAXAAVRFs@@ABVTDesC16@@H@Z @ 79 NONAME ; void CIptvUtil::EnsureAndHidePathL(class RFs &, class TDesC16 const &, int)
	?CheckLockCodeL@CVcxHgVodTelephonyClient@@QAEHXZ @ 80 NONAME ; int CVcxHgVodTelephonyClient::CheckLockCodeL(void)
	?SetMpxId@CIptvLastWatchedData@@QAEHH@Z @ 81 NONAME ; int CIptvLastWatchedData::SetMpxId(int)
	?GetUsedMemoryL@CIptvDriveMonitor@@QAEXAAH@Z @ 82 NONAME ; void CIptvDriveMonitor::GetUsedMemoryL(int &)
	??0CVcxHgVodTelephonyClient@@QAE@XZ @ 83 NONAME ; CVcxHgVodTelephonyClient::CVcxHgVodTelephonyClient(void)
	?NewL@CIptvThumbnailGenerator@@SAPAV1@AAVMIptvThumbnailObserver@@H@Z @ 84 NONAME ; class CIptvThumbnailGenerator * CIptvThumbnailGenerator::NewL(class MIptvThumbnailObserver &, int)
	?ConvertL@CVcxNsImageConverter@@QAEPAVCGulIcon@@ABVTDesC16@@VTSize@@HH@Z @ 85 NONAME ; class CGulIcon * CVcxNsImageConverter::ConvertL(class TDesC16 const &, class TSize, int, int)
	?InternalizeL@TIptvUint32StreamObject@@UAEXAAVRReadStream@@@Z @ 86 NONAME ; void TIptvUint32StreamObject::InternalizeL(class RReadStream &)
	?SetContentIndex@CIptvLastWatchedData@@QAEHJ@Z @ 87 NONAME ; int CIptvLastWatchedData::SetContentIndex(long)
	?MemoryCardDrive@CIptvDriveMonitor@@QAEHXZ @ 88 NONAME ; int CIptvDriveMonitor::MemoryCardDrive(void)
	??0TIptvRssSearchQuery@@QAE@XZ @ 89 NONAME ; TIptvRssSearchQuery::TIptvRssSearchQuery(void)
	?GetImageType@CVcxNsImageConverter@@QAEHABVTDesC16@@AAW4TImageType@1@@Z @ 90 NONAME ; int CVcxNsImageConverter::GetImageType(class TDesC16 const &, enum CVcxNsImageConverter::TImageType &)
	?Parameters@CIptvLastWatchedData@@QBEABVTDesC8@@XZ @ 91 NONAME ; class TDesC8 const & CIptvLastWatchedData::Parameters(void) const
	?GetLastWatchedDataL@CIptvLastWatchedApi@@QAEHAAVCIptvLastWatchedData@@@Z @ 92 NONAME ; int CIptvLastWatchedApi::GetLastWatchedDataL(class CIptvLastWatchedData &)
	?AddResourceL@CIptvResourceLoader@@QAEXABVTDesC16@@@Z @ 93 NONAME ; void CIptvResourceLoader::AddResourceL(class TDesC16 const &)
	?ReadDes8FromStreamL@CIptvUtil@@SAXAAVTDes8@@AAVRReadStream@@@Z @ 94 NONAME ; void CIptvUtil::ReadDes8FromStreamL(class TDes8 &, class RReadStream &)
	?IsWlanIapL@CIptvUtil@@SAHKAAH@Z @ 95 NONAME ; int CIptvUtil::IsWlanIapL(unsigned long, int &)
	?ExternalizeL@CIptvIapList@@QBEXAAVRDesWriteStream@@@Z @ 96 NONAME ; void CIptvIapList::ExternalizeL(class RDesWriteStream &) const
	?SelectMimeTypeL@CIptvTerminalVideoSupport@@QAEHAAV?$RPointerArray@VCIptvMediaContent@@@@@Z @ 97 NONAME ; int CIptvTerminalVideoSupport::SelectMimeTypeL(class RPointerArray<class CIptvMediaContent> &)
	?ConnectionTypeL@CIptvUtil@@SA?AW4TConnectionType@1@K@Z @ 98 NONAME ; enum CIptvUtil::TConnectionType CIptvUtil::ConnectionTypeL(unsigned long)
	?ReadDesFromStreamL@CIptvUtil@@SAXAAVTDes16@@AAVRReadStream@@@Z @ 99 NONAME ; void CIptvUtil::ReadDesFromStreamL(class TDes16 &, class RReadStream &)
	?ServiceId@CIptvLastWatchedData@@QBEJXZ @ 100 NONAME ; long CIptvLastWatchedData::ServiceId(void) const
	?SetL@CIptvIapList@@QAEXAAV1@@Z @ 101 NONAME ; void CIptvIapList::SetL(class CIptvIapList &)
	?RunL@CIptvDriveMonitor@@MAEXXZ @ 102 NONAME ; void CIptvDriveMonitor::RunL(void)
	?ArrayPosL@CIptvDriveMonitor@@QAEHH@Z @ 103 NONAME ; int CIptvDriveMonitor::ArrayPosL(int)
	?StartConvertL@CVcxNsImageConverter@@QAEHABVTDesC16@@VTSize@@H@Z @ 104 NONAME ; int CVcxNsImageConverter::StartConvertL(class TDesC16 const &, class TSize, int)
	?NewLC@CIptvTimer@@SAPAV1@HAAVMIptvTimerObserver@@@Z @ 105 NONAME ; class CIptvTimer * CIptvTimer::NewLC(int, class MIptvTimerObserver &)
	??0TIptvIap@@QAE@XZ @ 106 NONAME ; TIptvIap::TIptvIap(void)
	?AppUid@CIptvLastWatchedData@@QBE?AVTUid@@XZ @ 107 NONAME ; class TUid CIptvLastWatchedData::AppUid(void) const
	?NewLC@CIptvLastWatchedApi@@SAPAV1@XZ @ 108 NONAME ; class CIptvLastWatchedApi * CIptvLastWatchedApi::NewLC(void)
	?RegisterObserverL@CIptvDriveMonitor@@QAEXPAVMIptvDriveMonitorObserver@@@Z @ 109 NONAME ; void CIptvDriveMonitor::RegisterObserverL(class MIptvDriveMonitorObserver *)
	?NewL@CVcxIadUpdate@@SAPAV1@XZ @ 110 NONAME ; class CVcxIadUpdate * CVcxIadUpdate::NewL(void)
	??1CIptvIapList@@UAE@XZ @ 111 NONAME ; CIptvIapList::~CIptvIapList(void)
	??0TIptvUint32StreamObject@@QAE@XZ @ 112 NONAME ; TIptvUint32StreamObject::TIptvUint32StreamObject(void)
	?NewL@CIptvLastWatchedApi@@SAPAV1@XZ @ 113 NONAME ; class CIptvLastWatchedApi * CIptvLastWatchedApi::NewL(void)
	?Name@CIptvLastWatchedData@@QBEABVTDesC16@@XZ @ 114 NONAME ; class TDesC16 const & CIptvLastWatchedData::Name(void) const
	?SetMediaContentUrlL@CIptvMediaContent@@QAEXABVTDesC16@@@Z @ 115 NONAME ; void CIptvMediaContent::SetMediaContentUrlL(class TDesC16 const &)
	?WriteUint64ToStreamL@CIptvUtil@@SAX_KAAVRWriteStream@@@Z @ 116 NONAME ; void CIptvUtil::WriteUint64ToStreamL(unsigned long long, class RWriteStream &)
	?SetNameL@CIptvLastWatchedData@@QAEHABVTDesC16@@@Z @ 117 NONAME ; int CIptvLastWatchedData::SetNameL(class TDesC16 const &)
	??1TIptvIap@@QAE@XZ @ 118 NONAME ; TIptvIap::~TIptvIap(void)
	?RunL@CIptvTimer@@MAEXXZ @ 119 NONAME ; void CIptvTimer::RunL(void)
	?GetPathL@CIptvUtil@@SAXAAVRFs@@W4TIptvPathSelection@@AAVTDes16@@W4TDriveNumber@@H@Z @ 120 NONAME ; void CIptvUtil::GetPathL(class RFs &, enum TIptvPathSelection, class TDes16 &, enum TDriveNumber, int)
	?GetAllowedIapsListL@CIptvUtil@@SAXAAV?$RArray@K@@@Z @ 121 NONAME ; void CIptvUtil::GetAllowedIapsListL(class RArray<unsigned long> &)
	?NewL@CIptvEpgContent@@SAPAV1@XZ @ 122 NONAME ; class CIptvEpgContent * CIptvEpgContent::NewL(void)
	?ParameterId@CIptvLastWatchedData@@QBE?AVTUid@@XZ @ 123 NONAME ; class TUid CIptvLastWatchedData::ParameterId(void) const
	?SetViewUid@CIptvLastWatchedData@@QAEXABVTUid@@@Z @ 124 NONAME ; void CIptvLastWatchedData::SetViewUid(class TUid const &)
	?SearchString@TIptvRssSearchQuery@@QAEAAVTDesC16@@XZ @ 125 NONAME ; class TDesC16 & TIptvRssSearchQuery::SearchString(void)
	?RecognizeFile@CIptvUtil@@SAHAAVRFs@@ABVTDesC16@@AAVTDataType@@@Z @ 126 NONAME ; int CIptvUtil::RecognizeFile(class RFs &, class TDesC16 const &, class TDataType &)
	?SetServiceId@CIptvLastWatchedData@@QAEHJ@Z @ 127 NONAME ; int CIptvLastWatchedData::SetServiceId(long)
	?ExternalizeL@TIptvIap@@QBEXAAVRDesWriteStream@@@Z @ 128 NONAME ; void TIptvIap::ExternalizeL(class RDesWriteStream &) const
	?PhoneMemoryDriveL@CIptvDriveMonitor@@QAEHXZ @ 129 NONAME ; int CIptvDriveMonitor::PhoneMemoryDriveL(void)
	?RecognizeFile@CIptvUtil@@SAHABVRFile@@AAVTDataType@@@Z @ 130 NONAME ; int CIptvUtil::RecognizeFile(class RFile const &, class TDataType &)
	?MassStorageDriveL@CIptvDriveMonitor@@QAEHXZ @ 131 NONAME ; int CIptvDriveMonitor::MassStorageDriveL(void)
	?GetPathL@CIptvUtil@@SAXAAVRFs@@W4TIptvPathSelection@@KAAVTDes16@@H@Z @ 132 NONAME ; void CIptvUtil::GetPathL(class RFs &, enum TIptvPathSelection, unsigned long, class TDes16 &, int)
	??1TIptvUint32StreamObject@@QAE@XZ @ 133 NONAME ; TIptvUint32StreamObject::~TIptvUint32StreamObject(void)
	?AddIap@CIptvIapList@@QAEHAAVTIptvIap@@H@Z @ 134 NONAME ; int CIptvIapList::AddIap(class TIptvIap &, int)
	?InternalizeL@CIptvLastWatchedData@@QAEXAAVRReadStream@@@Z @ 135 NONAME ; void CIptvLastWatchedData::InternalizeL(class RReadStream &)
	?Count@CIptvIapList@@QAEEXZ @ 136 NONAME ; unsigned char CIptvIapList::Count(void)
	?WriteDes8ToStreamL@CIptvUtil@@SAXABVTDesC8@@AAVRWriteStream@@@Z @ 137 NONAME ; void CIptvUtil::WriteDes8ToStreamL(class TDesC8 const &, class RWriteStream &)
	?LaunchType@CIptvLastWatchedData@@QBE?AW4TLaunchType@1@XZ @ 138 NONAME ; enum CIptvLastWatchedData::TLaunchType CIptvLastWatchedData::LaunchType(void) const
	?SetContentType@CIptvLastWatchedData@@QAEHH@Z @ 139 NONAME ; int CIptvLastWatchedData::SetContentType(int)
	?ModifyIap@CIptvIapList@@QAEHEAAVTIptvIap@@@Z @ 140 NONAME ; int CIptvIapList::ModifyIap(unsigned char, class TIptvIap &)
	?ExternalizeL@CIptvLastWatchedData@@QAEXAAVRWriteStream@@@Z @ 141 NONAME ; void CIptvLastWatchedData::ExternalizeL(class RWriteStream &)
	?NewLC@CIptvThumbnailGenerator@@SAPAV1@AAVMIptvThumbnailObserver@@H@Z @ 142 NONAME ; class CIptvThumbnailGenerator * CIptvThumbnailGenerator::NewLC(class MIptvThumbnailObserver &, int)
	?SetAppUid@CIptvLastWatchedData@@QAEXABVTUid@@@Z @ 143 NONAME ; void CIptvLastWatchedData::SetAppUid(class TUid const &)
	?StartConvertL@CVcxNsImageConverter@@QAEHABVTDesC16@@VTSize@@HH@Z @ 144 NONAME ; int CVcxNsImageConverter::StartConvertL(class TDesC16 const &, class TSize, int, int)
	?FindIap@CIptvIapList@@QAEHKAAE@Z @ 145 NONAME ; int CIptvIapList::FindIap(unsigned long, unsigned char &)
	??1TIptvRssSearchQuery@@QAE@XZ @ 146 NONAME ; TIptvRssSearchQuery::~TIptvRssSearchQuery(void)
	?NewL@CIptvResourceLoader@@SAPAV1@AAVCCoeEnv@@@Z @ 147 NONAME ; class CIptvResourceLoader * CIptvResourceLoader::NewL(class CCoeEnv &)
	?PrintL@CIptvMediaContent@@QAEXXZ @ 148 NONAME ; void CIptvMediaContent::PrintL(void)
	?SetUriL@CIptvLastWatchedData@@QAEHABVTDesC16@@@Z @ 149 NONAME ; int CIptvLastWatchedData::SetUriL(class TDesC16 const &)
	?ContentIndex@CIptvLastWatchedData@@QBEJXZ @ 150 NONAME ; long CIptvLastWatchedData::ContentIndex(void) const
	?AddIap@CIptvIapList@@QAEHAAVTIptvIap@@@Z @ 151 NONAME ; int CIptvIapList::AddIap(class TIptvIap &)

