EXPORTS
	??0TIptvDriveInfo@@QAE@XZ @ 1 NONAME ; TIptvDriveInfo::TIptvDriveInfo(void)
	??0TIptvDriveMonitorEvent@@QAE@XZ @ 2 NONAME ; TIptvDriveMonitorEvent::TIptvDriveMonitorEvent(void)
	??1CVideoSettingsDriveMonitor@@UAE@XZ @ 3 NONAME ; CVideoSettingsDriveMonitor::~CVideoSettingsDriveMonitor(void)
	??1TIptvDriveInfo@@QAE@XZ @ 4 NONAME ; TIptvDriveInfo::~TIptvDriveInfo(void)
	?ArrayPos@CVideoSettingsDriveMonitor@@QAEHH@Z @ 5 NONAME ; int CVideoSettingsDriveMonitor::ArrayPos(int)
	?ArrayPosL@CVideoSettingsDriveMonitor@@QAEHH@Z @ 6 NONAME ; int CVideoSettingsDriveMonitor::ArrayPosL(int)
	?CheckLockCodeL@CVcxNsSettingsEngine@@QAEHXZ @ 7 NONAME ; int CVcxNsSettingsEngine::CheckLockCodeL(void)
	?FixedDrive@CVideoSettingsDriveMonitor@@QAEHH@Z @ 8 NONAME ; int CVideoSettingsDriveMonitor::FixedDrive(int)
	?FixedDriveL@CVideoSettingsDriveMonitor@@QAEHH@Z @ 9 NONAME ; int CVideoSettingsDriveMonitor::FixedDriveL(int)
	?GetAllowRoaming@CVcxNsSettingsEngine@@QAEHAAH@Z @ 10 NONAME ; int CVcxNsSettingsEngine::GetAllowRoaming(int &)
	?GetAllowUseGprs@CVcxNsSettingsEngine@@QAEHAAH@Z @ 11 NONAME ; int CVcxNsSettingsEngine::GetAllowUseGprs(int &)
	?GetParentControl@CVcxNsSettingsEngine@@QAEHAAH@Z @ 12 NONAME ; int CVcxNsSettingsEngine::GetParentControl(int &)
	?GetPlayerVolume@CVcxNsSettingsEngine@@QAEHAAH@Z @ 13 NONAME ; int CVcxNsSettingsEngine::GetPlayerVolume(int &)
	?GetUsedMemoryL@CVcxNsSettingsEngine@@QAEXAAH@Z @ 14 NONAME ; void CVcxNsSettingsEngine::GetUsedMemoryL(int &)
	?GetUsedMemoryL@CVideoSettingsDriveMonitor@@QAEXAAH@Z @ 15 NONAME ; void CVideoSettingsDriveMonitor::GetUsedMemoryL(int &)
	?GetUsedSnapId@CVcxNsSettingsEngine@@QAEHAAH@Z @ 16 NONAME ; int CVcxNsSettingsEngine::GetUsedSnapId(int &)
	?GetVideoOnDemandThumbnails@CVcxNsSettingsEngine@@QAEHAAH@Z @ 17 NONAME ; int CVcxNsSettingsEngine::GetVideoOnDemandThumbnails(int &)
	?IsMmcInserted@CVideoSettingsDriveMonitor@@QAEHXZ @ 18 NONAME ; int CVideoSettingsDriveMonitor::IsMmcInserted(void)
	?MassStorageDrive@CVideoSettingsDriveMonitor@@QAEHXZ @ 19 NONAME ; int CVideoSettingsDriveMonitor::MassStorageDrive(void)
	?MassStorageDriveL@CVideoSettingsDriveMonitor@@QAEHXZ @ 20 NONAME ; int CVideoSettingsDriveMonitor::MassStorageDriveL(void)
	?MemoryCardDrive@CVideoSettingsDriveMonitor@@QAEHXZ @ 21 NONAME ; int CVideoSettingsDriveMonitor::MemoryCardDrive(void)
	?MemoryCardDriveL@CVideoSettingsDriveMonitor@@QAEHXZ @ 22 NONAME ; int CVideoSettingsDriveMonitor::MemoryCardDriveL(void)
	?NewL@CVcxNsSettingsEngine@@SAPAV1@XZ @ 23 NONAME ; class CVcxNsSettingsEngine * CVcxNsSettingsEngine::NewL(void)
	?NewL@CVideoSettingsDriveMonitor@@SAPAV1@ABVRFs@@@Z @ 24 NONAME ; class CVideoSettingsDriveMonitor * CVideoSettingsDriveMonitor::NewL(class RFs const &)
	?NewL@CVideoSettingsDriveMonitor@@SAPAV1@XZ @ 25 NONAME ; class CVideoSettingsDriveMonitor * CVideoSettingsDriveMonitor::NewL(void)
	?PhoneMemoryDrive@CVideoSettingsDriveMonitor@@QAEHXZ @ 26 NONAME ; int CVideoSettingsDriveMonitor::PhoneMemoryDrive(void)
	?PhoneMemoryDriveL@CVideoSettingsDriveMonitor@@QAEHXZ @ 27 NONAME ; int CVideoSettingsDriveMonitor::PhoneMemoryDriveL(void)
	?RefreshAvailableDrivesL@CVideoSettingsDriveMonitor@@QAEXXZ @ 28 NONAME ; void CVideoSettingsDriveMonitor::RefreshAvailableDrivesL(void)
	?RegisterObserverL@CVideoSettingsDriveMonitor@@QAEXPAVMIptvDriveMonitorObserver@@@Z @ 29 NONAME ; void CVideoSettingsDriveMonitor::RegisterObserverL(class MIptvDriveMonitorObserver *)
	?RemoveObserverL@CVideoSettingsDriveMonitor@@QAEXPAVMIptvDriveMonitorObserver@@@Z @ 30 NONAME ; void CVideoSettingsDriveMonitor::RemoveObserverL(class MIptvDriveMonitorObserver *)
	?RunL@CVideoSettingsDriveMonitor@@MAEXXZ @ 31 NONAME ; void CVideoSettingsDriveMonitor::RunL(void)
	?SetAllowRoaming@CVcxNsSettingsEngine@@QAEHH@Z @ 32 NONAME ; int CVcxNsSettingsEngine::SetAllowRoaming(int)
	?SetAllowUseGprs@CVcxNsSettingsEngine@@QAEHH@Z @ 33 NONAME ; int CVcxNsSettingsEngine::SetAllowUseGprs(int)
	?SetParentControl@CVcxNsSettingsEngine@@QAEHH@Z @ 34 NONAME ; int CVcxNsSettingsEngine::SetParentControl(int)
	?SetPlayerVolume@CVcxNsSettingsEngine@@QAEHH@Z @ 35 NONAME ; int CVcxNsSettingsEngine::SetPlayerVolume(int)
	?SetUsedMemory@CVcxNsSettingsEngine@@QAEHH@Z @ 36 NONAME ; int CVcxNsSettingsEngine::SetUsedMemory(int)
	?SetUsedSnapId@CVcxNsSettingsEngine@@QAEHH@Z @ 37 NONAME ; int CVcxNsSettingsEngine::SetUsedSnapId(int)
	?SetVideoOnDemandThumbnails@CVcxNsSettingsEngine@@QAEHH@Z @ 38 NONAME ; int CVcxNsSettingsEngine::SetVideoOnDemandThumbnails(int)

