EXPORTS
	??0CIptvServiceManagementClient@@AAE@AAVMIptvServiceManagementClientObserver@@@Z @ 1 NONAME ; CIptvServiceManagementClient::CIptvServiceManagementClient(class MIptvServiceManagementClientObserver &)
	??0RIptvClientSession@@QAE@XZ @ 2 NONAME ; RIptvClientSession::RIptvClientSession(void)
	??1CIptvEvents@@UAE@XZ @ 3 NONAME ; CIptvEvents::~CIptvEvents(void)
	??1CIptvLiveTvClient@@UAE@XZ @ 4 NONAME ; CIptvLiveTvClient::~CIptvLiveTvClient(void)
	??1CIptvService@@UAE@XZ @ 5 NONAME ; CIptvService::~CIptvService(void)
	??1CIptvServiceManagementClient@@UAE@XZ @ 6 NONAME ; CIptvServiceManagementClient::~CIptvServiceManagementClient(void)
	??1CIptvServices@@UAE@XZ @ 7 NONAME ; CIptvServices::~CIptvServices(void)
	??1CIptvSmEvent@@UAE@XZ @ 8 NONAME ; CIptvSmEvent::~CIptvSmEvent(void)
	??1CIptvVodDlCancelDownloadReq@@UAE@XZ @ 9 NONAME ; CIptvVodDlCancelDownloadReq::~CIptvVodDlCancelDownloadReq(void)
	??1CIptvVodDlClient@@UAE@XZ @ 10 NONAME ; CIptvVodDlClient::~CIptvVodDlClient(void)
	??1CIptvVodDlDownloadEvent@@UAE@XZ @ 11 NONAME ; CIptvVodDlDownloadEvent::~CIptvVodDlDownloadEvent(void)
	??1CIptvVodDlDownloadList@@UAE@XZ @ 12 NONAME ; CIptvVodDlDownloadList::~CIptvVodDlDownloadList(void)
	??1CIptvVodDlDownloadListItem@@UAE@XZ @ 13 NONAME ; CIptvVodDlDownloadListItem::~CIptvVodDlDownloadListItem(void)
	??1CIptvVodDlResumeDownloadReq@@UAE@XZ @ 14 NONAME ; CIptvVodDlResumeDownloadReq::~CIptvVodDlResumeDownloadReq(void)
	??1RIptvClientSession@@QAE@XZ @ 15 NONAME ; RIptvClientSession::~RIptvClientSession(void)
	?AddL@CIptvServices@@QAEHAAVCIptvService@@@Z @ 16 NONAME ; int CIptvServices::AddL(class CIptvService &)
	?AddServiceIdL@CIptvLiveTvClient@@QAEXKAAVTRequestStatus@@@Z @ 17 NONAME ; void CIptvLiveTvClient::AddServiceIdL(unsigned long, class TRequestStatus &)
	?AddServiceL@CIptvServiceManagementClient@@QAEHAAVCIptvService@@AAW4TRespStatus@MIptvServiceManagementClientObserver@@@Z @ 18 NONAME ; int CIptvServiceManagementClient::AddServiceL(class CIptvService &, enum MIptvServiceManagementClientObserver::TRespStatus &)
	?AddServiceReqL@CIptvServiceManagementClient@@QAEHAAVCIptvService@@@Z @ 19 NONAME ; int CIptvServiceManagementClient::AddServiceReqL(class CIptvService &)
	?AudioLanguage@CIptvMyVideosVideoFullDetails@@QBEABVTDesC16@@XZ @ 20 NONAME ; class TDesC16 const & CIptvMyVideosVideoFullDetails::AudioLanguage(void) const
	?Author@CIptvMyVideosVideoFullDetails@@QBEABVTDesC16@@XZ @ 21 NONAME ; class TDesC16 const & CIptvMyVideosVideoFullDetails::Author(void) const
	?CancelCopyOrMoveL@CIptvMyVideosClient@@UAEHXZ @ 22 NONAME ; int CIptvMyVideosClient::CancelCopyOrMoveL(void)
	?CancelDownloadL@CIptvVodDlClient@@QAEHAAVCIptvMyVideosGlobalFileId@@@Z @ 23 NONAME ; int CIptvVodDlClient::CancelDownloadL(class CIptvMyVideosGlobalFileId &)
	?CancelDownloadL@CIptvVodDlClient@@QAEHKK@Z @ 24 NONAME ; int CIptvVodDlClient::CancelDownloadL(unsigned long, unsigned long)
	?CancelDownloadReqL@CIptvVodDlClient@@QAEXAAVTIptvVodDlDownloadId@@@Z @ 25 NONAME ; void CIptvVodDlClient::CancelDownloadReqL(class TIptvVodDlDownloadId &)
	?CancelRequest@CIptvServiceManagementClient@@QAEXXZ @ 26 NONAME ; void CIptvServiceManagementClient::CancelRequest(void)
	?CancelSearch@CIptvVodContentClient@@QAEHXZ @ 27 NONAME ; int CIptvVodContentClient::CancelSearch(void)
	?CancelUpdate@CIptvVodContentClient@@QAEXXZ @ 28 NONAME ; void CIptvVodContentClient::CancelUpdate(void)
	?ClearUsedIap@CIptvServiceManagementClient@@QAEHXZ @ 29 NONAME ; int CIptvServiceManagementClient::ClearUsedIap(void)
	?CompareL@CIptvService@@QAEHAAV1@@Z @ 30 NONAME ; int CIptvService::CompareL(class CIptvService &)
	?Connect@RIptvClientSession@@QAEHXZ @ 31 NONAME ; int RIptvClientSession::Connect(void)
	?CopyL@CIptvMyVideosClient@@UAEHAAVCIptvMyVideosGlobalFileId@@AAVCIptvMyVideosGlobalFolderId@@@Z @ 32 NONAME ; int CIptvMyVideosClient::CopyL(class CIptvMyVideosGlobalFileId &, class CIptvMyVideosGlobalFolderId &)
	?CopyL@CIptvMyVideosClient@@UAEHAAVCIptvMyVideosGlobalFolderId@@0AAK@Z @ 33 NONAME ; int CIptvMyVideosClient::CopyL(class CIptvMyVideosGlobalFolderId &, class CIptvMyVideosGlobalFolderId &, unsigned long &)
	?CopyReqL@CIptvMyVideosClient@@UAEHAAVCIptvMyVideosGlobalFileId@@AAVCIptvMyVideosGlobalFolderId@@@Z @ 34 NONAME ; int CIptvMyVideosClient::CopyReqL(class CIptvMyVideosGlobalFileId &, class CIptvMyVideosGlobalFolderId &)
	?CopyReqL@CIptvMyVideosClient@@UAEHAAVCIptvMyVideosGlobalFolderId@@0@Z @ 35 NONAME ; int CIptvMyVideosClient::CopyReqL(class CIptvMyVideosGlobalFolderId &, class CIptvMyVideosGlobalFolderId &)
	?Copyright@CIptvMyVideosVideoFullDetails@@QBEABVTDesC16@@XZ @ 36 NONAME ; class TDesC16 const & CIptvMyVideosVideoFullDetails::Copyright(void) const
	?Count@CIptvServices@@QAEHXZ @ 37 NONAME ; int CIptvServices::Count(void)
	?CountExternalizeSize@CIptvEvents@@UAEKXZ @ 38 NONAME ; unsigned long CIptvEvents::CountExternalizeSize(void)
	?CountExternalizeSize@CIptvMyVideosFolder@@QAEKXZ @ 39 NONAME ; unsigned long CIptvMyVideosFolder::CountExternalizeSize(void)
	?CountExternalizeSize@CIptvMyVideosGlobalFileId@@UAEKXZ @ 40 NONAME ; unsigned long CIptvMyVideosGlobalFileId::CountExternalizeSize(void)
	?CountExternalizeSize@CIptvMyVideosGlobalFolderId@@QAEKXZ @ 41 NONAME ; unsigned long CIptvMyVideosGlobalFolderId::CountExternalizeSize(void)
	?CountExternalizeSize@CIptvMyVideosVideoBriefDetails@@QAEKXZ @ 42 NONAME ; unsigned long CIptvMyVideosVideoBriefDetails::CountExternalizeSize(void)
	?CountExternalizeSize@CIptvMyVideosVideoFullDetails@@QAEKXZ @ 43 NONAME ; unsigned long CIptvMyVideosVideoFullDetails::CountExternalizeSize(void)
	?CountExternalizeSize@CIptvService@@QAEKXZ @ 44 NONAME ; unsigned long CIptvService::CountExternalizeSize(void)
	?CountExternalizeSize@CIptvServices@@QAEKXZ @ 45 NONAME ; unsigned long CIptvServices::CountExternalizeSize(void)
	?CountExternalizeSize@CIptvSmEvent@@UAEKXZ @ 46 NONAME ; unsigned long CIptvSmEvent::CountExternalizeSize(void)
	?CountExternalizeSize@CIptvVodContentCategoryBriefDetails@@QAEKXZ @ 47 NONAME ; unsigned long CIptvVodContentCategoryBriefDetails::CountExternalizeSize(void)
	?CountExternalizeSize@CIptvVodContentContentBriefDetails@@QAEKXZ @ 48 NONAME ; unsigned long CIptvVodContentContentBriefDetails::CountExternalizeSize(void)
	?CountExternalizeSize@CIptvVodContentContentFullDetails@@QAEKXZ @ 49 NONAME ; unsigned long CIptvVodContentContentFullDetails::CountExternalizeSize(void)
	?CountExternalizeSize@CIptvVodDlCancelDownloadReq@@UAEKXZ @ 50 NONAME ; unsigned long CIptvVodDlCancelDownloadReq::CountExternalizeSize(void)
	?CountExternalizeSize@CIptvVodDlDownloadEvent@@UAEKXZ @ 51 NONAME ; unsigned long CIptvVodDlDownloadEvent::CountExternalizeSize(void)
	?CountExternalizeSize@CIptvVodDlDownloadList@@UAEKXZ @ 52 NONAME ; unsigned long CIptvVodDlDownloadList::CountExternalizeSize(void)
	?CountExternalizeSize@CIptvVodDlDownloadListItem@@QAEKXZ @ 53 NONAME ; unsigned long CIptvVodDlDownloadListItem::CountExternalizeSize(void)
	?CountExternalizeSize@CIptvVodDlDownloadReq@@UAEKXZ @ 54 NONAME ; unsigned long CIptvVodDlDownloadReq::CountExternalizeSize(void)
	?CountExternalizeSize@CIptvVodDlResumeDownloadReq@@UAEKXZ @ 55 NONAME ; unsigned long CIptvVodDlResumeDownloadReq::CountExternalizeSize(void)
	?CountExternalizeSize@TIptvVodDlDownloadId@@UAEKXZ @ 56 NONAME ; unsigned long TIptvVodDlDownloadId::CountExternalizeSize(void)
	?CountSize@CIptvService@@QAEKXZ @ 57 NONAME ; unsigned long CIptvService::CountSize(void)
	?CreateVideoL@CIptvMyVideosClient@@UAEHAAVCIptvMyVideosVideoFullDetails@@W4TVideoType@MIptvMyVideos@@K@Z @ 58 NONAME ; int CIptvMyVideosClient::CreateVideoL(class CIptvMyVideosVideoFullDetails &, enum MIptvMyVideos::TVideoType, unsigned long)
	?Delete@CIptvVodDlDownloadList@@QAEHAAVCIptvMyVideosGlobalFileId@@@Z @ 59 NONAME ; int CIptvVodDlDownloadList::Delete(class CIptvMyVideosGlobalFileId &)
	?Delete@CIptvVodDlDownloadList@@QAEHKK@Z @ 60 NONAME ; int CIptvVodDlDownloadList::Delete(unsigned long, unsigned long)
	?DeleteAllDownloadsL@CIptvMyVideosClient@@UAEHXZ @ 61 NONAME ; int CIptvMyVideosClient::DeleteAllDownloadsL(void)
	?DeleteEvents@CIptvEvents@@QAEXXZ @ 62 NONAME ; void CIptvEvents::DeleteEvents(void)
	?DeleteFolderL@CIptvMyVideosClient@@UAEHAAVCIptvMyVideosGlobalFolderId@@@Z @ 63 NONAME ; int CIptvMyVideosClient::DeleteFolderL(class CIptvMyVideosGlobalFolderId &)
	?DeleteFolderReqL@CIptvMyVideosClient@@UAEHAAVCIptvMyVideosGlobalFolderId@@@Z @ 64 NONAME ; int CIptvMyVideosClient::DeleteFolderReqL(class CIptvMyVideosGlobalFolderId &)
	?DeleteServiceL@CIptvServiceManagementClient@@QAEHKAAW4TRespStatus@MIptvServiceManagementClientObserver@@@Z @ 65 NONAME ; int CIptvServiceManagementClient::DeleteServiceL(unsigned long, enum MIptvServiceManagementClientObserver::TRespStatus &)
	?DeleteServiceReqL@CIptvServiceManagementClient@@QAEHK@Z @ 66 NONAME ; int CIptvServiceManagementClient::DeleteServiceReqL(unsigned long)
	?DeleteVideoL@CIptvMyVideosClient@@UAEHAAVCIptvMyVideosGlobalFileId@@@Z @ 67 NONAME ; int CIptvMyVideosClient::DeleteVideoL(class CIptvMyVideosGlobalFileId &)
	?DeleteVideoReqL@CIptvMyVideosClient@@UAEHAAVCIptvMyVideosGlobalFileId@@@Z @ 68 NONAME ; int CIptvMyVideosClient::DeleteVideoReqL(class CIptvMyVideosGlobalFileId &)
	?Description@CIptvMyVideosVideoFullDetails@@QBEABVTDesC16@@XZ @ 69 NONAME ; class TDesC16 const & CIptvMyVideosVideoFullDetails::Description(void) const
	?Destruct@CIptvSmEvent@@UAEXXZ @ 70 NONAME ; void CIptvSmEvent::Destruct(void)
	?Destruct@CIptvVodDlDownloadEvent@@UAEXXZ @ 71 NONAME ; void CIptvVodDlDownloadEvent::Destruct(void)
	?DownloadL@CIptvVodDlClient@@QAE?AW4TIptvDlError@@KKKKW4TIptvDownloadType@@@Z @ 72 NONAME ; enum TIptvDlError CIptvVodDlClient::DownloadL(unsigned long, unsigned long, unsigned long, unsigned long, enum TIptvDownloadType)
	?DownloadReqL@CIptvVodDlClient@@QAEXKKKKW4TIptvDownloadType@@@Z @ 73 NONAME ; void CIptvVodDlClient::DownloadReqL(unsigned long, unsigned long, unsigned long, unsigned long, enum TIptvDownloadType)
	?EnsureFreeSpaceL@CIptvMyVideosClient@@UAEHAAVCIptvMyVideosGlobalFileId@@K0@Z @ 74 NONAME ; int CIptvMyVideosClient::EnsureFreeSpaceL(class CIptvMyVideosGlobalFileId &, unsigned long, class CIptvMyVideosGlobalFileId &)
	?EnsureFreeSpaceL@CIptvMyVideosClient@@UAEHAAVCIptvMyVideosGlobalFileId@@K@Z @ 75 NONAME ; int CIptvMyVideosClient::EnsureFreeSpaceL(class CIptvMyVideosGlobalFileId &, unsigned long)
	?ExternalizeL@CIptvEvents@@UAEXAAVRWriteStream@@@Z @ 76 NONAME ; void CIptvEvents::ExternalizeL(class RWriteStream &)
	?ExternalizeL@CIptvMyVideosFolder@@QBEXAAVRWriteStream@@@Z @ 77 NONAME ; void CIptvMyVideosFolder::ExternalizeL(class RWriteStream &) const
	?ExternalizeL@CIptvMyVideosGlobalFileId@@UAEXAAVRWriteStream@@@Z @ 78 NONAME ; void CIptvMyVideosGlobalFileId::ExternalizeL(class RWriteStream &)
	?ExternalizeL@CIptvMyVideosGlobalFolderId@@QBEXAAVRWriteStream@@@Z @ 79 NONAME ; void CIptvMyVideosGlobalFolderId::ExternalizeL(class RWriteStream &) const
	?ExternalizeL@CIptvMyVideosVideoBriefDetails@@QBEXAAVRWriteStream@@@Z @ 80 NONAME ; void CIptvMyVideosVideoBriefDetails::ExternalizeL(class RWriteStream &) const
	?ExternalizeL@CIptvMyVideosVideoFullDetails@@QBEXAAVRWriteStream@@@Z @ 81 NONAME ; void CIptvMyVideosVideoFullDetails::ExternalizeL(class RWriteStream &) const
	?ExternalizeL@CIptvService@@QBEXAAVRDesWriteStream@@@Z @ 82 NONAME ; void CIptvService::ExternalizeL(class RDesWriteStream &) const
	?ExternalizeL@CIptvServices@@QBEXAAVRDesWriteStream@@@Z @ 83 NONAME ; void CIptvServices::ExternalizeL(class RDesWriteStream &) const
	?ExternalizeL@CIptvSmEvent@@UAEXAAVRWriteStream@@@Z @ 84 NONAME ; void CIptvSmEvent::ExternalizeL(class RWriteStream &)
	?ExternalizeL@CIptvVodContentCategoryBriefDetails@@QBEXAAVRWriteStream@@@Z @ 85 NONAME ; void CIptvVodContentCategoryBriefDetails::ExternalizeL(class RWriteStream &) const
	?ExternalizeL@CIptvVodContentContentBriefDetails@@QBEXAAVRWriteStream@@@Z @ 86 NONAME ; void CIptvVodContentContentBriefDetails::ExternalizeL(class RWriteStream &) const
	?ExternalizeL@CIptvVodContentContentFullDetails@@QBEXAAVRWriteStream@@@Z @ 87 NONAME ; void CIptvVodContentContentFullDetails::ExternalizeL(class RWriteStream &) const
	?ExternalizeL@CIptvVodDlCancelDownloadReq@@UAEXAAVRWriteStream@@@Z @ 88 NONAME ; void CIptvVodDlCancelDownloadReq::ExternalizeL(class RWriteStream &)
	?ExternalizeL@CIptvVodDlDownloadEvent@@UAEXAAVRWriteStream@@@Z @ 89 NONAME ; void CIptvVodDlDownloadEvent::ExternalizeL(class RWriteStream &)
	?ExternalizeL@CIptvVodDlDownloadList@@UAEXAAVRWriteStream@@@Z @ 90 NONAME ; void CIptvVodDlDownloadList::ExternalizeL(class RWriteStream &)
	?ExternalizeL@CIptvVodDlDownloadListItem@@QAEXAAVRWriteStream@@@Z @ 91 NONAME ; void CIptvVodDlDownloadListItem::ExternalizeL(class RWriteStream &)
	?ExternalizeL@CIptvVodDlDownloadReq@@UAEXAAVRWriteStream@@@Z @ 92 NONAME ; void CIptvVodDlDownloadReq::ExternalizeL(class RWriteStream &)
	?ExternalizeL@CIptvVodDlResumeDownloadReq@@UAEXAAVRWriteStream@@@Z @ 93 NONAME ; void CIptvVodDlResumeDownloadReq::ExternalizeL(class RWriteStream &)
	?ExternalizeL@TIptvVodDlDownloadId@@UAEXAAVRWriteStream@@@Z @ 94 NONAME ; void TIptvVodDlDownloadId::ExternalizeL(class RWriteStream &)
	?FileSize@CIptvMyVideosVideoBriefDetails@@QAEHXZ @ 95 NONAME ; int CIptvMyVideosVideoBriefDetails::FileSize(void)
	?FileSourceName@CIptvMyVideosVideoFullDetails@@QBEABVTDesC16@@XZ @ 96 NONAME ; class TDesC16 const & CIptvMyVideosVideoFullDetails::FileSourceName(void) const
	?GetAccountManagementUrl@CIptvService@@QAEAAVTDesC16@@XZ @ 97 NONAME ; class TDesC16 & CIptvService::GetAccountManagementUrl(void)
	?GetAddress@CIptvService@@QAEAAVTDes16@@XZ @ 98 NONAME ; class TDes16 & CIptvService::GetAddress(void)
	?GetApplicationUid@CIptvService@@QAEJXZ @ 99 NONAME ; long CIptvService::GetApplicationUid(void)
	?GetBrowserUrlL@CIptvVodContentContentBriefDetails@@QAE?AVTPtrC16@@XZ @ 100 NONAME ; class TPtrC16 CIptvVodContentContentBriefDetails::GetBrowserUrlL(void)
	?GetCategoryDetailsL@CIptvVodContentClient@@UAEHKAAVCIptvVodContentCategoryBriefDetails@@@Z @ 101 NONAME ; int CIptvVodContentClient::GetCategoryDetailsL(unsigned long, class CIptvVodContentCategoryBriefDetails &)
	?GetContentAccessListL@CIptvVodContentClient@@UAEHKAAV?$RPointerArray@VCIptvMediaContent@@@@@Z @ 102 NONAME ; int CIptvVodContentClient::GetContentAccessListL(unsigned long, class RPointerArray<class CIptvMediaContent> &)
	?GetContentDetailsL@CIptvVodContentClient@@UAEHKAAVCIptvVodContentContentFullDetails@@@Z @ 103 NONAME ; int CIptvVodContentClient::GetContentDetailsL(unsigned long, class CIptvVodContentContentFullDetails &)
	?GetCopyL@CIptvSmEvent@@UAEPAVMIptvEvent@@XZ @ 104 NONAME ; class MIptvEvent * CIptvSmEvent::GetCopyL(void)
	?GetCopyL@CIptvVodDlDownloadEvent@@UAEPAVMIptvEvent@@XZ @ 105 NONAME ; class MIptvEvent * CIptvVodDlDownloadEvent::GetCopyL(void)
	?GetDesc@CIptvService@@QAEAAVTDes16@@XZ @ 106 NONAME ; class TDes16 & CIptvService::GetDesc(void)
	?GetDisplayOrder@CIptvService@@QAEKXZ @ 107 NONAME ; unsigned long CIptvService::GetDisplayOrder(void)
	?GetDownloadListL@CIptvVodDlClient@@QAEHAAVCIptvVodDlDownloadList@@@Z @ 108 NONAME ; int CIptvVodDlClient::GetDownloadListL(class CIptvVodDlDownloadList &)
	?GetDownloadProgressL@CIptvVodDlClient@@QAEHAAVCIptvMyVideosGlobalFileId@@@Z @ 109 NONAME ; int CIptvVodDlClient::GetDownloadProgressL(class CIptvMyVideosGlobalFileId &)
	?GetEcgAllListL@CIptvVodContentClient@@UAEHAAVTDesC16@@KKAAKAAV?$RPointerArray@VCIptvVodContentContentBriefDetails@@@@@Z @ 110 NONAME ; int CIptvVodContentClient::GetEcgAllListL(class TDesC16 &, unsigned long, unsigned long, unsigned long &, class RPointerArray<class CIptvVodContentContentBriefDetails> &)
	?GetEcgCategoryListL@CIptvVodContentClient@@UAEHKAAV?$RPointerArray@VCIptvVodContentCategoryBriefDetails@@@@@Z @ 111 NONAME ; int CIptvVodContentClient::GetEcgCategoryListL(unsigned long, class RPointerArray<class CIptvVodContentCategoryBriefDetails> &)
	?GetEcgListL@CIptvVodContentClient@@UAEHKAAVTDesC16@@KKAAKAAV?$RPointerArray@VCIptvVodContentContentBriefDetails@@@@@Z @ 112 NONAME ; int CIptvVodContentClient::GetEcgListL(unsigned long, class TDesC16 &, unsigned long, unsigned long, unsigned long &, class RPointerArray<class CIptvVodContentContentBriefDetails> &)
	?GetEpgPluginUid@CIptvService@@QAE?AVTUid@@XZ @ 113 NONAME ; class TUid CIptvService::GetEpgPluginUid(void)
	?GetEpgUpdateTimeL@CIptvService@@QAEAAVTTime@@XZ @ 114 NONAME ; class TTime & CIptvService::GetEpgUpdateTimeL(void)
	?GetFlags@CIptvService@@QAEKXZ @ 115 NONAME ; unsigned long CIptvService::GetFlags(void)
	?GetFolderListL@CIptvMyVideosClient@@UAEHAAVCIptvMyVideosGlobalFolderId@@KKAAKAAV?$RPointerArray@VCIptvMyVideosFolder@@@@@Z @ 116 NONAME ; int CIptvMyVideosClient::GetFolderListL(class CIptvMyVideosGlobalFolderId &, unsigned long, unsigned long, unsigned long &, class RPointerArray<class CIptvMyVideosFolder> &)
	?GetFolderNameL@CIptvMyVideosClient@@UAEHAAVCIptvMyVideosGlobalFolderId@@AAVTDes16@@@Z @ 117 NONAME ; int CIptvMyVideosClient::GetFolderNameL(class CIptvMyVideosGlobalFolderId &, class TDes16 &)
	?GetGroupId@CIptvService@@QAEKXZ @ 118 NONAME ; unsigned long CIptvService::GetGroupId(void)
	?GetIapList@CIptvService@@QAEAAVCIptvIapList@@XZ @ 119 NONAME ; class CIptvIapList & CIptvService::GetIapList(void)
	?GetIapNameL@CIptvService@@QAEABVTDesC16@@XZ @ 120 NONAME ; class TDesC16 const & CIptvService::GetIapNameL(void)
	?GetIconPath@CIptvService@@QAEAAVTDes16@@XZ @ 121 NONAME ; class TDes16 & CIptvService::GetIconPath(void)
	?GetIconUrl@CIptvService@@QAEAAVTDes16@@XZ @ 122 NONAME ; class TDes16 & CIptvService::GetIconUrl(void)
	?GetId@CIptvService@@QAEKXZ @ 123 NONAME ; unsigned long CIptvService::GetId(void)
	?GetIptvPluginUid@CIptvService@@QAE?AVTUid@@XZ @ 124 NONAME ; class TUid CIptvService::GetIptvPluginUid(void)
	?GetL@CIptvService@@QAEPAVHBufC8@@XZ @ 125 NONAME ; class HBufC8 * CIptvService::GetL(void)
	?GetListItem@CIptvVodDlDownloadList@@QAEPAVCIptvVodDlDownloadListItem@@AAVCIptvMyVideosGlobalFileId@@@Z @ 126 NONAME ; class CIptvVodDlDownloadListItem * CIptvVodDlDownloadList::GetListItem(class CIptvMyVideosGlobalFileId &)
	?GetListItem@CIptvVodDlDownloadList@@QAEPAVCIptvVodDlDownloadListItem@@KK@Z @ 127 NONAME ; class CIptvVodDlDownloadListItem * CIptvVodDlDownloadList::GetListItem(unsigned long, unsigned long)
	?GetName@CIptvService@@QAEAAVTDes16@@XZ @ 128 NONAME ; class TDes16 & CIptvService::GetName(void)
	?GetParentCategoryL@CIptvVodContentClient@@UAEHKAAK@Z @ 129 NONAME ; int CIptvVodContentClient::GetParentCategoryL(unsigned long, unsigned long &)
	?GetParentFolderL@CIptvMyVideosClient@@UAEHAAVCIptvMyVideosGlobalFolderId@@0@Z @ 130 NONAME ; int CIptvMyVideosClient::GetParentFolderL(class CIptvMyVideosGlobalFolderId &, class CIptvMyVideosGlobalFolderId &)
	?GetPassword@CIptvService@@QAEAAVTDes16@@XZ @ 131 NONAME ; class TDes16 & CIptvService::GetPassword(void)
	?GetProviderId@CIptvService@@QAEAAVTDesC16@@XZ @ 132 NONAME ; class TDesC16 & CIptvService::GetProviderId(void)
	?GetScheduledLastDownloadTime@CIptvService@@QBEABVTTime@@XZ @ 133 NONAME ; class TTime const & CIptvService::GetScheduledLastDownloadTime(void) const
	?GetServiceL@CIptvServices@@QAEPAVCIptvService@@K@Z @ 134 NONAME ; class CIptvService * CIptvServices::GetServiceL(unsigned long)
	?GetServiceRefL@CIptvServices@@QAEAAVCIptvService@@K@Z @ 135 NONAME ; class CIptvService & CIptvServices::GetServiceRefL(unsigned long)
	?GetServicesL@CIptvServiceManagementClient@@QAEHABVTDesC16@@AAVCIptvServices@@@Z @ 136 NONAME ; int CIptvServiceManagementClient::GetServicesL(class TDesC16 const &, class CIptvServices &)
	?GetServicesL@CIptvServiceManagementClient@@QAEHKKAAPAVCDesC8ArraySeg@@AAW4TRespStatus@MIptvServiceManagementClientObserver@@@Z @ 137 NONAME ; int CIptvServiceManagementClient::GetServicesL(unsigned long, unsigned long, class CDesC8ArraySeg * &, enum MIptvServiceManagementClientObserver::TRespStatus &)
	?GetServicesL@CIptvServiceManagementClient@@QAEHKW4TOrder@1@AAPAVCDesC8ArraySeg@@AAW4TRespStatus@MIptvServiceManagementClientObserver@@@Z @ 138 NONAME ; int CIptvServiceManagementClient::GetServicesL(unsigned long, enum CIptvServiceManagementClient::TOrder, class CDesC8ArraySeg * &, enum MIptvServiceManagementClientObserver::TRespStatus &)
	?GetServicesReqL@CIptvServiceManagementClient@@QAEHKK@Z @ 139 NONAME ; int CIptvServiceManagementClient::GetServicesReqL(unsigned long, unsigned long)
	?GetServicesReqL@CIptvServiceManagementClient@@QAEHKW4TOrder@1@@Z @ 140 NONAME ; int CIptvServiceManagementClient::GetServicesReqL(unsigned long, enum CIptvServiceManagementClient::TOrder)
	?GetTotalVideoLengthL@CIptvMyVideosClient@@UAEHAAK0@Z @ 141 NONAME ; int CIptvMyVideosClient::GetTotalVideoLengthL(unsigned long &, unsigned long &)
	?GetTotalVideoLengthRequestL@CIptvMyVideosClient@@UAEHXZ @ 142 NONAME ; int CIptvMyVideosClient::GetTotalVideoLengthRequestL(void)
	?GetType@CIptvService@@QAE?AW4TServiceType@1@XZ @ 143 NONAME ; enum CIptvService::TServiceType CIptvService::GetType(void)
	?GetUpdateTimeL@CIptvVodContentClient@@UAEHAAVTTime@@@Z @ 144 NONAME ; int CIptvVodContentClient::GetUpdateTimeL(class TTime &)
	?GetUploadProvider@CIptvService@@QBEABVTDesC16@@XZ @ 145 NONAME ; class TDesC16 const & CIptvService::GetUploadProvider(void) const
	?GetUseCategory@CIptvService@@QAEHXZ @ 146 NONAME ; int CIptvService::GetUseCategory(void)
	?GetUsedIapL@CIptvServiceManagementClient@@QAEXKAAKAAVTDes16@@AAW4TConnectionPermission@CIptvNetworkSelection@@AAW4TRespStatus@4@@Z @ 147 NONAME ; void CIptvServiceManagementClient::GetUsedIapL(unsigned long, unsigned long &, class TDes16 &, enum CIptvNetworkSelection::TConnectionPermission &, enum CIptvNetworkSelection::TRespStatus &)
	?GetUsedIapReqL@CIptvServiceManagementClient@@QAEXK@Z @ 148 NONAME ; void CIptvServiceManagementClient::GetUsedIapReqL(unsigned long)
	?GetUserName@CIptvService@@QAEAAVTDes16@@XZ @ 149 NONAME ; class TDes16 & CIptvService::GetUserName(void)
	?GetVideoDetailsForPathL@CIptvMyVideosClient@@UAEHABVTDesC16@@AAVCIptvMyVideosVideoFullDetails@@@Z @ 150 NONAME ; int CIptvMyVideosClient::GetVideoDetailsForPathL(class TDesC16 const &, class CIptvMyVideosVideoFullDetails &)
	?GetVideoDetailsL@CIptvMyVideosClient@@UAEHAAVCIptvMyVideosGlobalFileId@@AAVCIptvMyVideosVideoFullDetails@@@Z @ 151 NONAME ; int CIptvMyVideosClient::GetVideoDetailsL(class CIptvMyVideosGlobalFileId &, class CIptvMyVideosVideoFullDetails &)
	?GetVideoListL@CIptvMyVideosClient@@UAEHAAVCIptvMyVideosGlobalFolderId@@KKAAKAAV?$RPointerArray@VCIptvMyVideosVideoBriefDetails@@@@@Z @ 152 NONAME ; int CIptvMyVideosClient::GetVideoListL(class CIptvMyVideosGlobalFolderId &, unsigned long, unsigned long, unsigned long &, class RPointerArray<class CIptvMyVideosVideoBriefDetails> &)
	?GetVodPluginUid@CIptvService@@QAE?AVTUid@@XZ @ 153 NONAME ; class TUid CIptvService::GetVodPluginUid(void)
	?InternalizeL@CIptvEvents@@UAEXAAVRReadStream@@@Z @ 154 NONAME ; void CIptvEvents::InternalizeL(class RReadStream &)
	?InternalizeL@CIptvMyVideosFolder@@QAEXAAVRReadStream@@@Z @ 155 NONAME ; void CIptvMyVideosFolder::InternalizeL(class RReadStream &)
	?InternalizeL@CIptvMyVideosGlobalFileId@@UAEXAAVRReadStream@@@Z @ 156 NONAME ; void CIptvMyVideosGlobalFileId::InternalizeL(class RReadStream &)
	?InternalizeL@CIptvMyVideosGlobalFolderId@@QAEXAAVRReadStream@@@Z @ 157 NONAME ; void CIptvMyVideosGlobalFolderId::InternalizeL(class RReadStream &)
	?InternalizeL@CIptvMyVideosVideoBriefDetails@@QAEXAAVRReadStream@@@Z @ 158 NONAME ; void CIptvMyVideosVideoBriefDetails::InternalizeL(class RReadStream &)
	?InternalizeL@CIptvMyVideosVideoFullDetails@@QAEXAAVRReadStream@@@Z @ 159 NONAME ; void CIptvMyVideosVideoFullDetails::InternalizeL(class RReadStream &)
	?InternalizeL@CIptvService@@QAEXAAVRDesReadStream@@@Z @ 160 NONAME ; void CIptvService::InternalizeL(class RDesReadStream &)
	?InternalizeL@CIptvServices@@QAEXAAVRDesReadStream@@@Z @ 161 NONAME ; void CIptvServices::InternalizeL(class RDesReadStream &)
	?InternalizeL@CIptvSmEvent@@UAEXAAVRReadStream@@@Z @ 162 NONAME ; void CIptvSmEvent::InternalizeL(class RReadStream &)
	?InternalizeL@CIptvVodContentCategoryBriefDetails@@QAEXAAVRReadStream@@@Z @ 163 NONAME ; void CIptvVodContentCategoryBriefDetails::InternalizeL(class RReadStream &)
	?InternalizeL@CIptvVodContentContentBriefDetails@@QAEXAAVRReadStream@@@Z @ 164 NONAME ; void CIptvVodContentContentBriefDetails::InternalizeL(class RReadStream &)
	?InternalizeL@CIptvVodContentContentFullDetails@@QAEXAAVRReadStream@@@Z @ 165 NONAME ; void CIptvVodContentContentFullDetails::InternalizeL(class RReadStream &)
	?InternalizeL@CIptvVodDlCancelDownloadReq@@UAEXAAVRReadStream@@@Z @ 166 NONAME ; void CIptvVodDlCancelDownloadReq::InternalizeL(class RReadStream &)
	?InternalizeL@CIptvVodDlDownloadEvent@@UAEXAAVRReadStream@@@Z @ 167 NONAME ; void CIptvVodDlDownloadEvent::InternalizeL(class RReadStream &)
	?InternalizeL@CIptvVodDlDownloadList@@UAEXAAVRReadStream@@@Z @ 168 NONAME ; void CIptvVodDlDownloadList::InternalizeL(class RReadStream &)
	?InternalizeL@CIptvVodDlDownloadListItem@@QAEXAAVRReadStream@@@Z @ 169 NONAME ; void CIptvVodDlDownloadListItem::InternalizeL(class RReadStream &)
	?InternalizeL@CIptvVodDlDownloadReq@@UAEXAAVRReadStream@@@Z @ 170 NONAME ; void CIptvVodDlDownloadReq::InternalizeL(class RReadStream &)
	?InternalizeL@CIptvVodDlResumeDownloadReq@@UAEXAAVRReadStream@@@Z @ 171 NONAME ; void CIptvVodDlResumeDownloadReq::InternalizeL(class RReadStream &)
	?InternalizeL@TIptvVodDlDownloadId@@UAEXAAVRReadStream@@@Z @ 172 NONAME ; void TIptvVodDlDownloadId::InternalizeL(class RReadStream &)
	?IsConnectionAllowedL@CIptvServiceManagementClient@@QAEXKAAW4TConnectionPermission@CIptvNetworkSelection@@AAW4TRespStatus@3@@Z @ 173 NONAME ; void CIptvServiceManagementClient::IsConnectionAllowedL(unsigned long, enum CIptvNetworkSelection::TConnectionPermission &, enum CIptvNetworkSelection::TRespStatus &)
	?LastPlayPoint@CIptvMyVideosVideoFullDetails@@QAEMXZ @ 174 NONAME ; float CIptvMyVideosVideoFullDetails::LastPlayPoint(void)
	?MDSOrigin@CIptvMyVideosVideoFullDetails@@QAEHXZ @ 175 NONAME ; int CIptvMyVideosVideoFullDetails::MDSOrigin(void)
	?MimeType@CIptvMyVideosVideoFullDetails@@QBEABVTDesC16@@XZ @ 176 NONAME ; class TDesC16 const & CIptvMyVideosVideoFullDetails::MimeType(void) const
	?MoveL@CIptvMyVideosClient@@UAEHAAVCIptvMyVideosGlobalFileId@@AAVCIptvMyVideosGlobalFolderId@@@Z @ 177 NONAME ; int CIptvMyVideosClient::MoveL(class CIptvMyVideosGlobalFileId &, class CIptvMyVideosGlobalFolderId &)
	?MoveL@CIptvMyVideosClient@@UAEHAAVCIptvMyVideosGlobalFolderId@@0AAK@Z @ 178 NONAME ; int CIptvMyVideosClient::MoveL(class CIptvMyVideosGlobalFolderId &, class CIptvMyVideosGlobalFolderId &, unsigned long &)
	?MoveReqL@CIptvMyVideosClient@@UAEHAAVCIptvMyVideosGlobalFileId@@AAVCIptvMyVideosGlobalFolderId@@@Z @ 179 NONAME ; int CIptvMyVideosClient::MoveReqL(class CIptvMyVideosGlobalFileId &, class CIptvMyVideosGlobalFolderId &)
	?MoveReqL@CIptvMyVideosClient@@UAEHAAVCIptvMyVideosGlobalFolderId@@0@Z @ 180 NONAME ; int CIptvMyVideosClient::MoveReqL(class CIptvMyVideosGlobalFolderId &, class CIptvMyVideosGlobalFolderId &)
	?Name@CIptvMyVideosVideoBriefDetails@@QBEABVTDesC16@@XZ @ 181 NONAME ; class TDesC16 const & CIptvMyVideosVideoBriefDetails::Name(void) const
	?NewDatabaseFolderL@CIptvMyVideosClient@@UAEHAAVCIptvMyVideosGlobalFolderId@@AAVTDesC16@@0@Z @ 182 NONAME ; int CIptvMyVideosClient::NewDatabaseFolderL(class CIptvMyVideosGlobalFolderId &, class TDesC16 &, class CIptvMyVideosGlobalFolderId &)
	?NewL@CIptvEpgService@@SAPAV1@XZ @ 183 NONAME ; class CIptvEpgService * CIptvEpgService::NewL(void)
	?NewL@CIptvEvents@@SAPAV1@PAVMIptvEvent@@@Z @ 184 NONAME ; class CIptvEvents * CIptvEvents::NewL(class MIptvEvent *)
	?NewL@CIptvLiveTvClient@@SAPAV1@XZ @ 185 NONAME ; class CIptvLiveTvClient * CIptvLiveTvClient::NewL(void)
	?NewL@CIptvMyVideosClient@@SAPAV1@AAVMIptvMyVideosClientObserver@@H@Z @ 186 NONAME ; class CIptvMyVideosClient * CIptvMyVideosClient::NewL(class MIptvMyVideosClientObserver &, int)
	?NewL@CIptvMyVideosFolder@@SAPAV1@XZ @ 187 NONAME ; class CIptvMyVideosFolder * CIptvMyVideosFolder::NewL(void)
	?NewL@CIptvMyVideosGlobalFileId@@SAPAV1@XZ @ 188 NONAME ; class CIptvMyVideosGlobalFileId * CIptvMyVideosGlobalFileId::NewL(void)
	?NewL@CIptvMyVideosGlobalFolderId@@SAPAV1@XZ @ 189 NONAME ; class CIptvMyVideosGlobalFolderId * CIptvMyVideosGlobalFolderId::NewL(void)
	?NewL@CIptvMyVideosVideoBriefDetails@@SAPAV1@XZ @ 190 NONAME ; class CIptvMyVideosVideoBriefDetails * CIptvMyVideosVideoBriefDetails::NewL(void)
	?NewL@CIptvMyVideosVideoFullDetails@@SAPAV1@XZ @ 191 NONAME ; class CIptvMyVideosVideoFullDetails * CIptvMyVideosVideoFullDetails::NewL(void)
	?NewL@CIptvService@@SAPAV1@XZ @ 192 NONAME ; class CIptvService * CIptvService::NewL(void)
	?NewL@CIptvServiceManagementClient@@SAPAV1@AAVMIptvServiceManagementClientObserver@@@Z @ 193 NONAME ; class CIptvServiceManagementClient * CIptvServiceManagementClient::NewL(class MIptvServiceManagementClientObserver &)
	?NewL@CIptvServices@@SAPAV1@XZ @ 194 NONAME ; class CIptvServices * CIptvServices::NewL(void)
	?NewL@CIptvSmEvent@@SAPAV1@XZ @ 195 NONAME ; class CIptvSmEvent * CIptvSmEvent::NewL(void)
	?NewL@CIptvVodContentCategoryBriefDetails@@SAPAV1@XZ @ 196 NONAME ; class CIptvVodContentCategoryBriefDetails * CIptvVodContentCategoryBriefDetails::NewL(void)
	?NewL@CIptvVodContentClient@@SAPAV1@KAAVMIptvVodContentClientObserver@@@Z @ 197 NONAME ; class CIptvVodContentClient * CIptvVodContentClient::NewL(unsigned long, class MIptvVodContentClientObserver &)
	?NewL@CIptvVodContentContentBriefDetails@@SAPAV1@XZ @ 198 NONAME ; class CIptvVodContentContentBriefDetails * CIptvVodContentContentBriefDetails::NewL(void)
	?NewL@CIptvVodContentContentFullDetails@@SAPAV1@XZ @ 199 NONAME ; class CIptvVodContentContentFullDetails * CIptvVodContentContentFullDetails::NewL(void)
	?NewL@CIptvVodContentUpdateObserver@@SAPAV1@AAVMIptvVodContentClientObserver@@AAVRIptvClientSession@@K@Z @ 200 NONAME ; class CIptvVodContentUpdateObserver * CIptvVodContentUpdateObserver::NewL(class MIptvVodContentClientObserver &, class RIptvClientSession &, unsigned long)
	?NewL@CIptvVodDlCancelDownloadReq@@SAPAV1@XZ @ 201 NONAME ; class CIptvVodDlCancelDownloadReq * CIptvVodDlCancelDownloadReq::NewL(void)
	?NewL@CIptvVodDlClient@@SAPAV1@AAVMIptvVodDlClientObserver@@@Z @ 202 NONAME ; class CIptvVodDlClient * CIptvVodDlClient::NewL(class MIptvVodDlClientObserver &)
	?NewL@CIptvVodDlDownloadEvent@@SAPAV1@XZ @ 203 NONAME ; class CIptvVodDlDownloadEvent * CIptvVodDlDownloadEvent::NewL(void)
	?NewL@CIptvVodDlDownloadList@@SAPAV1@XZ @ 204 NONAME ; class CIptvVodDlDownloadList * CIptvVodDlDownloadList::NewL(void)
	?NewL@CIptvVodDlDownloadListItem@@SAPAV1@XZ @ 205 NONAME ; class CIptvVodDlDownloadListItem * CIptvVodDlDownloadListItem::NewL(void)
	?NewL@CIptvVodDlDownloadReq@@SAPAV1@XZ @ 206 NONAME ; class CIptvVodDlDownloadReq * CIptvVodDlDownloadReq::NewL(void)
	?NewL@CIptvVodDlResumeDownloadReq@@SAPAV1@XZ @ 207 NONAME ; class CIptvVodDlResumeDownloadReq * CIptvVodDlResumeDownloadReq::NewL(void)
	?NewLC@CIptvMyVideosClient@@SAPAV1@AAVMIptvMyVideosClientObserver@@H@Z @ 208 NONAME ; class CIptvMyVideosClient * CIptvMyVideosClient::NewLC(class MIptvMyVideosClientObserver &, int)
	?NewLC@CIptvMyVideosFolder@@SAPAV1@XZ @ 209 NONAME ; class CIptvMyVideosFolder * CIptvMyVideosFolder::NewLC(void)
	?NewLC@CIptvMyVideosGlobalFileId@@SAPAV1@XZ @ 210 NONAME ; class CIptvMyVideosGlobalFileId * CIptvMyVideosGlobalFileId::NewLC(void)
	?NewLC@CIptvMyVideosGlobalFolderId@@SAPAV1@XZ @ 211 NONAME ; class CIptvMyVideosGlobalFolderId * CIptvMyVideosGlobalFolderId::NewLC(void)
	?NewLC@CIptvMyVideosVideoBriefDetails@@SAPAV1@XZ @ 212 NONAME ; class CIptvMyVideosVideoBriefDetails * CIptvMyVideosVideoBriefDetails::NewLC(void)
	?NewLC@CIptvMyVideosVideoFullDetails@@SAPAV1@XZ @ 213 NONAME ; class CIptvMyVideosVideoFullDetails * CIptvMyVideosVideoFullDetails::NewLC(void)
	?NewLC@CIptvVodContentClient@@SAPAV1@KAAVMIptvVodContentClientObserver@@@Z @ 214 NONAME ; class CIptvVodContentClient * CIptvVodContentClient::NewLC(unsigned long, class MIptvVodContentClientObserver &)
	?NewLC@CIptvVodDlClient@@SAPAV1@AAVMIptvVodDlClientObserver@@@Z @ 215 NONAME ; class CIptvVodDlClient * CIptvVodDlClient::NewLC(class MIptvVodDlClientObserver &)
	?NewRootFolderL@CIptvMyVideosGlobalFolderId@@SAPAV1@H@Z @ 216 NONAME ; class CIptvMyVideosGlobalFolderId * CIptvMyVideosGlobalFolderId::NewRootFolderL(int)
	?PauseAllDownloads@CIptvVodDlClient@@QAEHXZ @ 217 NONAME ; int CIptvVodDlClient::PauseAllDownloads(void)
	?PauseDownloadL@CIptvVodDlClient@@QAEHAAVCIptvMyVideosGlobalFileId@@@Z @ 218 NONAME ; int CIptvVodDlClient::PauseDownloadL(class CIptvMyVideosGlobalFileId &)
	?PlayTime@CIptvMyVideosVideoBriefDetails@@QAEMXZ @ 219 NONAME ; float CIptvMyVideosVideoBriefDetails::PlayTime(void)
	?PurchaseL@CIptvVodDlClient@@QAEHKK@Z @ 220 NONAME ; int CIptvVodDlClient::PurchaseL(unsigned long, unsigned long)
	?RecordUrl@CIptvService@@QBEABVTDesC16@@XZ @ 221 NONAME ; class TDesC16 const & CIptvService::RecordUrl(void) const
	?RenameDatabaseFolderL@CIptvMyVideosClient@@UAEHAAVCIptvMyVideosGlobalFolderId@@AAVTDesC16@@@Z @ 222 NONAME ; int CIptvMyVideosClient::RenameDatabaseFolderL(class CIptvMyVideosGlobalFolderId &, class TDesC16 &)
	?ResetGlobalId@CIptvVodContentClient@@QAEXAAVCIptvMyVideosGlobalFileId@@K@Z @ 223 NONAME ; void CIptvVodContentClient::ResetGlobalId(class CIptvMyVideosGlobalFileId &, unsigned long)
	?ResumeAllDownloads@CIptvVodDlClient@@QAEHXZ @ 224 NONAME ; int CIptvVodDlClient::ResumeAllDownloads(void)
	?ResumeDownloadL@CIptvVodDlClient@@QAEHAAVCIptvMyVideosGlobalFileId@@HABVTDesC16@@1KH@Z @ 225 NONAME ; int CIptvVodDlClient::ResumeDownloadL(class CIptvMyVideosGlobalFileId &, int, class TDesC16 const &, class TDesC16 const &, unsigned long, int)
	?ResumeDownloadL@CIptvVodDlClient@@QAEHKKHABVTDesC16@@0KH@Z @ 226 NONAME ; int CIptvVodDlClient::ResumeDownloadL(unsigned long, unsigned long, int, class TDesC16 const &, class TDesC16 const &, unsigned long, int)
	?ScheduleDlNetwork@CIptvService@@QBEIXZ @ 227 NONAME ; unsigned int CIptvService::ScheduleDlNetwork(void) const
	?ScheduleDlTime@CIptvService@@QBEIXZ @ 228 NONAME ; unsigned int CIptvService::ScheduleDlTime(void) const
	?ScheduleDlType@CIptvService@@QBEIXZ @ 229 NONAME ; unsigned int CIptvService::ScheduleDlType(void) const
	?Search@CIptvVodContentClient@@QAEHAAVTIptvRssSearchQuery@@@Z @ 230 NONAME ; int CIptvVodContentClient::Search(class TIptvRssSearchQuery &)
	?SearchUrl@CIptvEpgService@@QAE?AVTPtrC16@@XZ @ 231 NONAME ; class TPtrC16 CIptvEpgService::SearchUrl(void)
	?SearchUrl@CIptvService@@QBEABVTDesC16@@XZ @ 232 NONAME ; class TDesC16 const & CIptvService::SearchUrl(void) const
	?SecureProvisioningUrlParametersL@CIptvService@@SAPAVHBufC16@@XZ @ 233 NONAME ; class HBufC16 * CIptvService::SecureProvisioningUrlParametersL(void)
	?SendRequest@RIptvClientSession@@QAEHEAAVTDes8@@@Z @ 234 NONAME ; int RIptvClientSession::SendRequest(unsigned char, class TDes8 &)
	?SendRequest@RIptvClientSession@@QAEXEAAVTDes8@@AAVTRequestStatus@@@Z @ 235 NONAME ; void RIptvClientSession::SendRequest(unsigned char, class TDes8 &, class TRequestStatus &)
	?SendRequest@RIptvClientSession@@QAEXEAAVTRequestStatus@@@Z @ 236 NONAME ; void RIptvClientSession::SendRequest(unsigned char, class TRequestStatus &)
	?SendRequest@RIptvClientSession@@QBEHE@Z @ 237 NONAME ; int RIptvClientSession::SendRequest(unsigned char) const
	?ServerShutdown@CIptvServiceManagementClient@@QAEHAAW4TRespStatus@MIptvServiceManagementClientObserver@@@Z @ 238 NONAME ; int CIptvServiceManagementClient::ServerShutdown(enum MIptvServiceManagementClientObserver::TRespStatus &)
	?ServerShutdownReq@CIptvServiceManagementClient@@QAEHXZ @ 239 NONAME ; int CIptvServiceManagementClient::ServerShutdownReq(void)
	?Service@CIptvServices@@QAEAAVCIptvService@@KAAH@Z @ 240 NONAME ; class CIptvService & CIptvServices::Service(unsigned long, int &)
	?Set@CIptvVodDlCancelDownloadReq@@QAEXAAVTIptvVodDlDownloadId@@@Z @ 241 NONAME ; void CIptvVodDlCancelDownloadReq::Set(class TIptvVodDlDownloadId &)
	?Set@CIptvVodDlDownloadEvent@@QAEXAAV1@@Z @ 242 NONAME ; void CIptvVodDlDownloadEvent::Set(class CIptvVodDlDownloadEvent &)
	?Set@TIptvVodDlDownloadId@@QAEXAAV1@@Z @ 243 NONAME ; void TIptvVodDlDownloadId::Set(class TIptvVodDlDownloadId &)
	?SetAccountManagementUrl@CIptvService@@QAEHABVTDesC16@@@Z @ 244 NONAME ; int CIptvService::SetAccountManagementUrl(class TDesC16 const &)
	?SetAddress@CIptvService@@QAEHABVTDesC16@@@Z @ 245 NONAME ; int CIptvService::SetAddress(class TDesC16 const &)
	?SetAllIapsL@CIptvServiceManagementClient@@QAEXAAVCIptvIapList@@HAAW4TRespStatus@MIptvServiceManagementClientObserver@@@Z @ 246 NONAME ; void CIptvServiceManagementClient::SetAllIapsL(class CIptvIapList &, int, enum MIptvServiceManagementClientObserver::TRespStatus &)
	?SetAllIapsReqL@CIptvServiceManagementClient@@QAEXAAVCIptvIapList@@H@Z @ 247 NONAME ; void CIptvServiceManagementClient::SetAllIapsReqL(class CIptvIapList &, int)
	?SetApplicationUid@CIptvService@@QAEXJ@Z @ 248 NONAME ; void CIptvService::SetApplicationUid(long)
	?SetAudioLanguageL@CIptvMyVideosVideoFullDetails@@QAEXABVTDesC16@@@Z @ 249 NONAME ; void CIptvMyVideosVideoFullDetails::SetAudioLanguageL(class TDesC16 const &)
	?SetAuthorL@CIptvMyVideosVideoFullDetails@@QAEXABVTDesC16@@@Z @ 250 NONAME ; void CIptvMyVideosVideoFullDetails::SetAuthorL(class TDesC16 const &)
	?SetBrowserUrlL@CIptvVodContentContentBriefDetails@@QAEXABVTDesC16@@@Z @ 251 NONAME ; void CIptvVodContentContentBriefDetails::SetBrowserUrlL(class TDesC16 const &)
	?SetConnectionAllowedL@CIptvServiceManagementClient@@QAEXHKAAW4TRespStatus@CIptvNetworkSelection@@@Z @ 252 NONAME ; void CIptvServiceManagementClient::SetConnectionAllowedL(int, unsigned long, enum CIptvNetworkSelection::TRespStatus &)
	?SetCopyrightL@CIptvMyVideosVideoFullDetails@@QAEXABVTDesC16@@@Z @ 253 NONAME ; void CIptvMyVideosVideoFullDetails::SetCopyrightL(class TDesC16 const &)
	?SetDesc@CIptvService@@QAEHABVTDesC16@@@Z @ 254 NONAME ; int CIptvService::SetDesc(class TDesC16 const &)
	?SetDescriptionL@CIptvMyVideosVideoFullDetails@@QAEXABVTDesC16@@@Z @ 255 NONAME ; void CIptvMyVideosVideoFullDetails::SetDescriptionL(class TDesC16 const &)
	?SetDisplayOrder@CIptvService@@QAEXK@Z @ 256 NONAME ; void CIptvService::SetDisplayOrder(unsigned long)
	?SetEpgPluginUid@CIptvService@@QAEXVTUid@@@Z @ 257 NONAME ; void CIptvService::SetEpgPluginUid(class TUid)
	?SetEpgUpdateTimeL@CIptvService@@QAEXABVTTime@@@Z @ 258 NONAME ; void CIptvService::SetEpgUpdateTimeL(class TTime const &)
	?SetFileSize@CIptvMyVideosVideoBriefDetails@@QAEXH@Z @ 259 NONAME ; void CIptvMyVideosVideoBriefDetails::SetFileSize(int)
	?SetFileSourceNameL@CIptvMyVideosVideoFullDetails@@QAEXABVTDesC16@@@Z @ 260 NONAME ; void CIptvMyVideosVideoFullDetails::SetFileSourceNameL(class TDesC16 const &)
	?SetFlags@CIptvService@@QAEXK@Z @ 261 NONAME ; void CIptvService::SetFlags(unsigned long)
	?SetGroupId@CIptvService@@QAEXK@Z @ 262 NONAME ; void CIptvService::SetGroupId(unsigned long)
	?SetIapL@CIptvLiveTvClient@@QAEHK@Z @ 263 NONAME ; int CIptvLiveTvClient::SetIapL(unsigned long)
	?SetIapL@CIptvVodContentClient@@UAEHK@Z @ 264 NONAME ; int CIptvVodContentClient::SetIapL(unsigned long)
	?SetIapListL@CIptvService@@QAEHAAVCIptvIapList@@@Z @ 265 NONAME ; int CIptvService::SetIapListL(class CIptvIapList &)
	?SetIapNameL@CIptvService@@QAEXABVTDesC16@@@Z @ 266 NONAME ; void CIptvService::SetIapNameL(class TDesC16 const &)
	?SetIconPath@CIptvService@@QAEHABVTDesC16@@@Z @ 267 NONAME ; int CIptvService::SetIconPath(class TDesC16 const &)
	?SetIconUrl@CIptvService@@QAEHABVTDesC16@@@Z @ 268 NONAME ; int CIptvService::SetIconUrl(class TDesC16 const &)
	?SetId@CIptvService@@QAEXK@Z @ 269 NONAME ; void CIptvService::SetId(unsigned long)
	?SetIptvPluginUid@CIptvService@@QAEXVTUid@@@Z @ 270 NONAME ; void CIptvService::SetIptvPluginUid(class TUid)
	?SetL@CIptvEvents@@QAEXAAV1@@Z @ 271 NONAME ; void CIptvEvents::SetL(class CIptvEvents &)
	?SetL@CIptvService@@QAEHABVTDesC8@@@Z @ 272 NONAME ; int CIptvService::SetL(class TDesC8 const &)
	?SetLastPlayPoint@CIptvMyVideosVideoFullDetails@@QAEXM@Z @ 273 NONAME ; void CIptvMyVideosVideoFullDetails::SetLastPlayPoint(float)
	?SetLastPositionL@CIptvVodContentClient@@UAEHKKK@Z @ 274 NONAME ; int CIptvVodContentClient::SetLastPositionL(unsigned long, unsigned long, unsigned long)
	?SetMDSOrigin@CIptvMyVideosVideoFullDetails@@QAEXH@Z @ 275 NONAME ; void CIptvMyVideosVideoFullDetails::SetMDSOrigin(int)
	?SetMimeTypeL@CIptvMyVideosVideoFullDetails@@QAEXABVTDesC16@@@Z @ 276 NONAME ; void CIptvMyVideosVideoFullDetails::SetMimeTypeL(class TDesC16 const &)
	?SetMpxIdL@CIptvVodContentClient@@UAEHKKK@Z @ 277 NONAME ; int CIptvVodContentClient::SetMpxIdL(unsigned long, unsigned long, unsigned long)
	?SetName@CIptvService@@QAEHABVTDesC16@@@Z @ 278 NONAME ; int CIptvService::SetName(class TDesC16 const &)
	?SetNameL@CIptvMyVideosVideoBriefDetails@@QAEXABVTDesC16@@@Z @ 279 NONAME ; void CIptvMyVideosVideoBriefDetails::SetNameL(class TDesC16 const &)
	?SetPassword@CIptvService@@QAEHABVTDesC16@@@Z @ 280 NONAME ; int CIptvService::SetPassword(class TDesC16 const &)
	?SetPlayTime@CIptvMyVideosVideoBriefDetails@@QAEXM@Z @ 281 NONAME ; void CIptvMyVideosVideoBriefDetails::SetPlayTime(float)
	?SetProviderId@CIptvService@@QAEHABVTDesC16@@@Z @ 282 NONAME ; int CIptvService::SetProviderId(class TDesC16 const &)
	?SetRecordUrlL@CIptvService@@QAEXABVTDesC16@@@Z @ 283 NONAME ; void CIptvService::SetRecordUrlL(class TDesC16 const &)
	?SetScheduleDlNetwork@CIptvService@@QAEXI@Z @ 284 NONAME ; void CIptvService::SetScheduleDlNetwork(unsigned int)
	?SetScheduleDlTime@CIptvService@@QAEXI@Z @ 285 NONAME ; void CIptvService::SetScheduleDlTime(unsigned int)
	?SetScheduleDlType@CIptvService@@QAEXI@Z @ 286 NONAME ; void CIptvService::SetScheduleDlType(unsigned int)
	?SetScheduledLastDownloadTime@CIptvService@@QAEXABVTTime@@@Z @ 287 NONAME ; void CIptvService::SetScheduledLastDownloadTime(class TTime const &)
	?SetSearchUrlL@CIptvEpgService@@QAEXABVTDesC16@@@Z @ 288 NONAME ; void CIptvEpgService::SetSearchUrlL(class TDesC16 const &)
	?SetSearchUrlL@CIptvService@@QAEXABVTDesC16@@@Z @ 289 NONAME ; void CIptvService::SetSearchUrlL(class TDesC16 const &)
	?SetThumbnailPathL@CIptvMyVideosVideoBriefDetails@@QAEXABVTDesC16@@@Z @ 290 NONAME ; void CIptvMyVideosVideoBriefDetails::SetThumbnailPathL(class TDesC16 const &)
	?SetType@CIptvService@@QAEXW4TServiceType@1@@Z @ 291 NONAME ; void CIptvService::SetType(enum CIptvService::TServiceType)
	?SetUploadProvider@CIptvService@@QAEHABVTDesC16@@@Z @ 292 NONAME ; int CIptvService::SetUploadProvider(class TDesC16 const &)
	?SetUseCategory@CIptvService@@QAEXABH@Z @ 293 NONAME ; void CIptvService::SetUseCategory(int const &)
	?SetUsedIapL@CIptvServiceManagementClient@@QAEXKKHAAW4TRespStatus@CIptvNetworkSelection@@@Z @ 294 NONAME ; void CIptvServiceManagementClient::SetUsedIapL(unsigned long, unsigned long, int, enum CIptvNetworkSelection::TRespStatus &)
	?SetUserName@CIptvService@@QAEHABVTDesC16@@@Z @ 295 NONAME ; int CIptvService::SetUserName(class TDesC16 const &)
	?SetVideoDetailsL@CIptvMyVideosClient@@UAEHAAVCIptvMyVideosVideoFullDetails@@@Z @ 296 NONAME ; int CIptvMyVideosClient::SetVideoDetailsL(class CIptvMyVideosVideoFullDetails &)
	?SetVideoPathL@CIptvMyVideosVideoFullDetails@@QAEXABVTDesC16@@@Z @ 297 NONAME ; void CIptvMyVideosVideoFullDetails::SetVideoPathL(class TDesC16 const &)
	?SetVodPluginUid@CIptvService@@QAEXVTUid@@@Z @ 298 NONAME ; void CIptvService::SetVodPluginUid(class TUid)
	?SetWaitForFlushInDestructor@CIptvVodDlClient@@QAEXH@Z @ 299 NONAME ; void CIptvVodDlClient::SetWaitForFlushInDestructor(int)
	?ThumbnailPath@CIptvMyVideosVideoBriefDetails@@QBEABVTDesC16@@XZ @ 300 NONAME ; class TDesC16 const & CIptvMyVideosVideoBriefDetails::ThumbnailPath(void) const
	?UpdateAvailableL@CIptvVodContentClient@@QAEHAAH@Z @ 301 NONAME ; int CIptvVodContentClient::UpdateAvailableL(int &)
	?UpdateChannelOrderL@CIptvLiveTvClient@@QAEHK_JK@Z @ 302 NONAME ; int CIptvLiveTvClient::UpdateChannelOrderL(unsigned long, long long, unsigned long)
	?UpdateDownloadNotification@CIptvVodDlClient@@QAEXABVTDesC16@@@Z @ 303 NONAME ; void CIptvVodDlClient::UpdateDownloadNotification(class TDesC16 const &)
	?UpdateEPG@CIptvLiveTvClient@@QAEXKAAVTRequestStatus@@@Z @ 304 NONAME ; void CIptvLiveTvClient::UpdateEPG(unsigned long, class TRequestStatus &)
	?UpdateEcgL@CIptvVodContentClient@@UAEHXZ @ 305 NONAME ; int CIptvVodContentClient::UpdateEcgL(void)
	?UpdateServiceL@CIptvServiceManagementClient@@QAEHAAVCIptvService@@AAW4TRespStatus@MIptvServiceManagementClientObserver@@@Z @ 306 NONAME ; int CIptvServiceManagementClient::UpdateServiceL(class CIptvService &, enum MIptvServiceManagementClientObserver::TRespStatus &)
	?UpdateServiceReqL@CIptvServiceManagementClient@@QAEHAAVCIptvService@@@Z @ 307 NONAME ; int CIptvServiceManagementClient::UpdateServiceReqL(class CIptvService &)
	?Version@RIptvClientSession@@QBE?AVTVersion@@XZ @ 308 NONAME ; class TVersion RIptvClientSession::Version(void) const
	?VideoPath@CIptvMyVideosVideoFullDetails@@QBEABVTDesC16@@XZ @ 309 NONAME ; class TDesC16 const & CIptvMyVideosVideoFullDetails::VideoPath(void) const
	?WaitForFlush@CIptvVodDlClient@@QAEXXZ @ 310 NONAME ; void CIptvVodDlClient::WaitForFlush(void)
	?CheckGroupL@CIptvVodContentClient@@QAEHXZ @ 311 NONAME ; int CIptvVodContentClient::CheckGroupL(void)

