EXPORTS
	??0CMPSettingsBaseContainer@@QAE@XZ @ 1 NONAME ; public: __thiscall CMPSettingsBaseContainer::CMPSettingsBaseContainer(void)
	??0CMPSettingsBaseView@@QAE@XZ @ 2 NONAME ; public: __thiscall CMPSettingsBaseView::CMPSettingsBaseView(void)
	??1CMPSettingsBaseContainer@@UAE@XZ @ 3 NONAME ; public: virtual __thiscall CMPSettingsBaseContainer::~CMPSettingsBaseContainer(void)
	??1CMPSettingsBaseView@@UAE@XZ @ 4 NONAME ; public: virtual __thiscall CMPSettingsBaseView::~CMPSettingsBaseView(void)
	??1CMPSettingsPluginView@@UAE@XZ @ 5 NONAME ; public: virtual __thiscall CMPSettingsPluginView::~CMPSettingsPluginView(void)
	?ComponentControl@CMPSettingsBaseContainer@@UBEPAVCCoeControl@@H@Z @ 6 NONAME ; public: virtual class CCoeControl * __thiscall CMPSettingsBaseContainer::ComponentControl(int)const 
	?ConstructL@CMPSettingsBaseContainer@@QAEXABVTRect@@@Z @ 7 NONAME ; public: void __thiscall CMPSettingsBaseContainer::ConstructL(class TRect const &)
	?CountComponentControls@CMPSettingsBaseContainer@@UBEHXZ @ 8 NONAME ; public: virtual int __thiscall CMPSettingsBaseContainer::CountComponentControls(void)const 
	?DoActivateL@CMPSettingsBaseView@@MAEXABVTVwsViewId@@VTUid@@ABVTDesC8@@@Z @ 9 NONAME ; protected: virtual void __thiscall CMPSettingsBaseView::DoActivateL(class TVwsViewId const &,class TUid,class TDesC8 const &)
	?DoDeactivate@CMPSettingsBaseView@@MAEXXZ @ 10 NONAME ; protected: virtual void __thiscall CMPSettingsBaseView::DoDeactivate(void)
	?DynInitContainerL@CMPSettingsBaseView@@MAEXXZ @ 11 NONAME ; protected: virtual void __thiscall CMPSettingsBaseView::DynInitContainerL(void)
	?DynInitMenuPaneL@CMPSettingsBaseView@@MAEXHPAVCEikMenuPane@@@Z @ 12 NONAME ; protected: virtual void __thiscall CMPSettingsBaseView::DynInitMenuPaneL(int,class CEikMenuPane *)
	?HandleClientRectChange@CMPSettingsBaseView@@QAEXXZ @ 13 NONAME ; public: void __thiscall CMPSettingsBaseView::HandleClientRectChange(void)
	?ListBox@CMPSettingsBaseContainer@@UAEPAVCEikTextListBox@@XZ @ 14 NONAME ; public: virtual class CEikTextListBox * __thiscall CMPSettingsBaseContainer::ListBox(void)
	?ListImplementationsL@CMPSettingsPluginView@@SAXAAV?$RPointerArray@VCImplementationInformation@@@@@Z @ 15 NONAME ; public: static void __cdecl CMPSettingsPluginView::ListImplementationsL(class RPointerArray<class CImplementationInformation> &)
	?NewL@CMPSettingsPluginView@@SAPAV1@VTUid@@@Z @ 16 NONAME ; public: static class CMPSettingsPluginView * __cdecl CMPSettingsPluginView::NewL(class TUid)
	?OfferKeyEventL@CMPSettingsBaseContainer@@UAE?AW4TKeyResponse@@ABUTKeyEvent@@W4TEventCode@@@Z @ 17 NONAME ; public: virtual enum TKeyResponse  __thiscall CMPSettingsBaseContainer::OfferKeyEventL(struct TKeyEvent const &,enum TEventCode)
	?SetCurrentItem@CMPSettingsBaseView@@UAEXH@Z @ 18 NONAME ; public: virtual void __thiscall CMPSettingsBaseView::SetCurrentItem(int)
	?SetNaviPaneL@CMPSettingsBaseView@@MAEXXZ @ 19 NONAME ; protected: virtual void __thiscall CMPSettingsBaseView::SetNaviPaneL(void)
	?SizeChanged@CMPSettingsBaseContainer@@UAEXXZ @ 20 NONAME ; public: virtual void __thiscall CMPSettingsBaseContainer::SizeChanged(void)

