EXPORTS
	_ZN18VideoThumbnailData11qt_metacallEN11QMetaObject4CallEiPPv @ 1 NONAME
	_ZN18VideoThumbnailData11qt_metacastEPKc @ 2 NONAME
	_ZN18VideoThumbnailData12getThumbnailE10TMPXItemId @ 3 NONAME
	_ZN18VideoThumbnailData15removeThumbnailE10TMPXItemId @ 4 NONAME
	_ZN18VideoThumbnailData16staticMetaObjectE @ 5 NONAME DATA 16
	_ZN18VideoThumbnailData17freeThumbnailDataEv @ 6 NONAME
	_ZN18VideoThumbnailData17thumbnailsFetchedE5QListI10TMPXItemIdE @ 7 NONAME
	_ZN18VideoThumbnailData19getStaticMetaObjectEv @ 8 NONAME
	_ZN18VideoThumbnailData22startFetchingThumbnailEii @ 9 NONAME
	_ZN18VideoThumbnailData23startBackgroundFetchingEi @ 10 NONAME
	_ZN18VideoThumbnailData24enableBackgroundFetchingEb @ 11 NONAME
	_ZN18VideoThumbnailData8instanceEv @ 12 NONAME
	_ZN18VideoThumbnailDataC1Ev @ 13 NONAME
	_ZN18VideoThumbnailDataC2Ev @ 14 NONAME
	_ZN18VideoThumbnailDataD0Ev @ 15 NONAME
	_ZN18VideoThumbnailDataD1Ev @ 16 NONAME
	_ZN18VideoThumbnailDataD2Ev @ 17 NONAME
	_ZN22VideoCollectionWrapper11asyncStatusEiR8QVariant @ 18 NONAME
	_ZN22VideoCollectionWrapper11qt_metacallEN11QMetaObject4CallEiPPv @ 19 NONAME
	_ZN22VideoCollectionWrapper11qt_metacastEPKc @ 20 NONAME
	_ZN22VideoCollectionWrapper15sendAsyncStatusEiR8QVariant @ 21 NONAME
	_ZN22VideoCollectionWrapper16staticMetaObjectE @ 22 NONAME DATA 16
	_ZN22VideoCollectionWrapper19getStaticMetaObjectEv @ 23 NONAME
	_ZN22VideoCollectionWrapper22decreaseReferenceCountEv @ 24 NONAME
	_ZN22VideoCollectionWrapper8getModelEv @ 25 NONAME
	_ZN22VideoCollectionWrapper8instanceEv @ 26 NONAME
	_ZN22VideoCollectionWrapper9mInstanceE @ 27 NONAME DATA 4
	_ZN22VideoCollectionWrapperC1Ev @ 28 NONAME
	_ZN22VideoCollectionWrapperC2Ev @ 29 NONAME
	_ZN22VideoCollectionWrapperD0Ev @ 30 NONAME
	_ZN22VideoCollectionWrapperD1Ev @ 31 NONAME
	_ZN22VideoCollectionWrapperD2Ev @ 32 NONAME
	_ZN25VideoSortFilterProxyModel10initializeEP18VideoListDataModel @ 33 NONAME
	_ZN25VideoSortFilterProxyModel10modelReadyEv @ 34 NONAME
	_ZN25VideoSortFilterProxyModel11deleteItemsERK5QListI11QModelIndexE @ 35 NONAME
	_ZN25VideoSortFilterProxyModel11qt_metacallEN11QMetaObject4CallEiPPv @ 36 NONAME
	_ZN25VideoSortFilterProxyModel11qt_metacastEPKc @ 37 NONAME
	_ZN25VideoSortFilterProxyModel14processSortingEv @ 38 NONAME
	_ZN25VideoSortFilterProxyModel16addNewCollectionE7QStringS0_5QListI10TMPXItemIdE @ 39 NONAME
	_ZN25VideoSortFilterProxyModel16fetchItemDetailsERK11QModelIndex @ 40 NONAME
	_ZN25VideoSortFilterProxyModel16fullDetailsReadyEi @ 41 NONAME
	_ZN25VideoSortFilterProxyModel16staticMetaObjectE @ 42 NONAME DATA 16
	_ZN25VideoSortFilterProxyModel17getMediaIdAtIndexERK11QModelIndex @ 43 NONAME
	_ZN25VideoSortFilterProxyModel17shortDetailsReadyEi @ 44 NONAME
	_ZN25VideoSortFilterProxyModel19getStaticMetaObjectEv @ 45 NONAME
	_ZN25VideoSortFilterProxyModel21getMediaFilePathForIdE10TMPXItemId @ 46 NONAME
	_ZN25VideoSortFilterProxyModel4backEv @ 47 NONAME
	_ZN25VideoSortFilterProxyModel4openEi @ 48 NONAME
	_ZN25VideoSortFilterProxyModel8openItemERK11QModelIndex @ 49 NONAME
	_ZN25VideoSortFilterProxyModel9doSortingEiN2Qt9SortOrderEb @ 50 NONAME
	_ZN25VideoSortFilterProxyModelC1EP7QObject @ 51 NONAME
	_ZN25VideoSortFilterProxyModelC2EP7QObject @ 52 NONAME
	_ZN25VideoSortFilterProxyModelD0Ev @ 53 NONAME
	_ZN25VideoSortFilterProxyModelD1Ev @ 54 NONAME
	_ZN25VideoSortFilterProxyModelD2Ev @ 55 NONAME
	_ZNK18VideoThumbnailData10metaObjectEv @ 56 NONAME
	_ZNK22VideoCollectionWrapper10metaObjectEv @ 57 NONAME
	_ZNK25VideoSortFilterProxyModel10metaObjectEv @ 58 NONAME
	_ZNK25VideoSortFilterProxyModel16filterAcceptsRowEiRK11QModelIndex @ 59 NONAME
	_ZNK25VideoSortFilterProxyModel8lessThanERK11QModelIndexS2_ @ 60 NONAME
	_ZTI18VideoThumbnailData @ 61 NONAME
	_ZTI22VideoCollectionWrapper @ 62 NONAME
	_ZTI25VideoSortFilterProxyModel @ 63 NONAME
	_ZTV18VideoThumbnailData @ 64 NONAME
	_ZTV22VideoCollectionWrapper @ 65 NONAME
	_ZTV25VideoSortFilterProxyModel @ 66 NONAME

