EXPORTS
	_ZN17CVcxHgVodMainView4NewLEv @ 1 NONAME
	_ZN17CVcxHgVodMainView5NewLCEv @ 2 NONAME
	_ZN17CVcxHgVodMainViewD0Ev @ 3 NONAME
	_ZN17CVcxHgVodMainViewD1Ev @ 4 NONAME
	_ZN17CVcxHgVodMainViewD2Ev @ 5 NONAME
	_ZTI17CVcxHgVodMainView @ 6 NONAME ; #<TI>#
	_ZTI24CVcxHgVodContentListImpl @ 7 NONAME ; #<TI>#
	_ZTI24CVcxHgVodServiceListImpl @ 8 NONAME ; #<TI>#
	_ZTI25CVcxHgVodCategoryListImpl @ 9 NONAME ; #<TI>#
	_ZTI26CVcxHgVodMainViewContainer @ 10 NONAME ; #<TI>#
	_ZTI32CVcxHgVodContentListModelHandler @ 11 NONAME ; #<TI>#
	_ZTI32CVcxHgVodServiceListModelHandler @ 12 NONAME ; #<TI>#
	_ZTI33CVcxHgVodCategoryListModelHandler @ 13 NONAME ; #<TI>#
	_ZTV17CVcxHgVodMainView @ 14 NONAME ; #<VT>#
	_ZTV24CVcxHgVodContentListImpl @ 15 NONAME ; #<VT>#
	_ZTV24CVcxHgVodServiceListImpl @ 16 NONAME ; #<VT>#
	_ZTV25CVcxHgVodCategoryListImpl @ 17 NONAME ; #<VT>#
	_ZTV26CVcxHgVodMainViewContainer @ 18 NONAME ; #<VT>#
	_ZTV32CVcxHgVodContentListModelHandler @ 19 NONAME ; #<VT>#
	_ZTV32CVcxHgVodServiceListModelHandler @ 20 NONAME ; #<VT>#
	_ZTV33CVcxHgVodCategoryListModelHandler @ 21 NONAME ; #<VT>#

